(dp0
S'bkg'
p1
(lp2
(F8.3321189061636005
F2.142560259483139
tp3
a(F7.1049762305377513
F1.9202684771659186
tp4
a(F4.5068939342726377
F1.4791476054375736
tp5
a(F3.2829710416110713
F1.9504902028627509
tp6
a(F6.852704808887486
F1.976321172487703
tp7
a(F5.9380731367401349
F2.01507217116158
tp8
a(F3.7848060073556953
F1.5003773547547443
tp9
a(F2.6617760126456105
F1.6737838586317668
tp10
a(F4.4869703253649913
F1.1292933988015392
tp11
a(F3.8587194942949918
F0.96505249909423063
tp12
a(F2.4011772041754806
F0.50407830048048829
tp13
a(F1.6443766505849353
F0.66012763839126742
tp14
a(F2.7971716970251275
F1.1178809608916926
tp15
a(F2.3408057690703861
F0.91985887649697073
tp16
a(F1.5026035335086187
F0.49825397932989779
tp17
a(F1.0143911466932025
F0.3792686514201149
tp18
a(F1.4813363119982532
F0.77918010673624138
tp19
a(F1.2287496116523715
F0.53034443618600469
tp20
a(F0.78065133337413894
F0.32394061690125264
tp21
a(F0.51496121960961594
F0.16063124611502697
tp22
a(F0.61220002251627292
F0.47758292444171113
tp23
a(F0.51197677868757197
F0.40845392106723472
tp24
a(F0.33417987211508587
F0.21028262753540528
tp25
a(F0.22067292849778708
F0.095637855330137314
tp26
a(F2.9285218518848146
F0.61733138528802955
tp27
a(F2.4815501730103806
F0.47953628255433578
tp28
a(F1.5553302082093992
F0.52941527794142662
tp29
a(F1.0373137575176581
F0.44390969820933396
tp30
a(F2.5732810218450464
F1.0895741595003348
tp31
a(F2.2090694158851067
F1.0169662218303714
tp32
a(F1.389006838144446
F0.72688238234485936
tp33
a(F0.90437029688425086
F0.54259026265229737
tp34
a(F1.889001223018054
F0.68693745365136027
tp35
a(F1.6048938106305408
F0.56341663850442658
tp36
a(F1.0186714205291798
F0.54293748262359698
tp37
a(F0.64854512826846655
F0.33920094853584348
tp38
a(F1.342913404454702
F0.67419573809170419
tp39
a(F1.123739937365833
F0.51600550013624924
tp40
a(F0.71984655846541512
F0.43414247262550737
tp41
a(F0.4591865970305033
F0.22604774229493599
tp42
a(F0.79923462881735552
F0.52246883593439852
tp43
a(F0.66660562601821827
F0.38360053036527553
tp44
a(F0.42183933041809646
F0.25703564931853695
tp45
a(F0.266594854500668
F0.10449390167544874
tp46
a(F0.42510794672081115
F0.24500100275502604
tp47
a(F0.35552348181231874
F0.17600522507288235
tp48
a(F0.22712080717925362
F0.11927297752968896
tp49
a(F0.14520713741117008
F0.038633828467908048
tp50
a(F0.42708998647681501
F0.27822916097365052
tp51
a(F0.3638808580890518
F0.22868003854721428
tp52
a(F0.22057315941898237
F0.29446319603822724
tp53
a(F0.1426425797760188
F0.23374956780189984
tp54
a(F0.36843049663598409
F0.28288061442093304
tp55
a(F0.31525875644206908
F0.15057070434234787
tp56
a(F0.19427101332832555
F0.15228521753814897
tp57
a(F0.12426483337557744
F0.16017691460994576
tp58
a(F0.28339889636475779
F0.32735786898588248
tp59
a(F0.23961516935408095
F0.19504378573121176
tp60
a(F0.14784324107127
F0.16199625954906827
tp61
a(F0.094638106774211972
F0.16172307243216946
tp62
a(F0.22161762818268804
F0.19592516629251039
tp63
a(F0.18597528668892438
F0.16090876542580099
tp64
a(F0.11745756803573106
F0.089878780577204873
tp65
a(F0.075207625329284725
F0.070216126679057952
tp66
a(F0.15651113313794818
F0.19756438274166271
tp67
a(F0.13143778312924373
F0.16242895922525288
tp68
a(F0.083172526129292823
F0.091957312125193952
tp69
a(F0.053294550089953881
F0.071895699475594585
tp70
a(F0.10882010383029346
F0.11480534649149815
tp71
a(F0.091436338523959854
F0.094591768814412072
tp72
a(F0.057969295970663581
F0.056092874784812466
tp73
a(F0.037165066300868771
F0.08081452289227517
tp74
asS'H_1000_X_150'
p75
(lp76
(F0.5008773120804576
F0.0076767877820072064
tp77
a(F0.49946539576733445
F0.0076659601492813584
tp78
a(F0.49675922283384832
F0.0076451643235747211
tp79
a(F0.49381773051484157
F0.0076224958151479959
tp80
a(F0.48428729540125992
F0.0075485822764684131
tp81
a(F0.48299303878089694
F0.0075384887443245684
tp82
a(F0.4804045255401711
F0.0075182610273718531
tp83
a(F0.47746303322116446
F0.007495208722456465
tp84
a(F0.46381450886097342
F0.0073873048272246351
tp85
a(F0.46275557162613096
F0.0073788670119898769
tp86
a(F0.46016705838540511
F0.0073582005074625907
tp87
a(F0.45746088545191899
F0.0073365323710941673
tp88
a(F0.43157575304466012
F0.0071259434818145805
tp89
a(F0.43063447550257805
F0.0071181683093062761
tp90
a(F0.42804596226185221
F0.0070967426617429552
tp91
a(F0.42569276840664688
F0.0070772085133189106
tp92
a(F0.38392357747675199
F0.0067210363910142077
tp93
a(F0.38298229993466981
F0.0067127922463706387
tp94
a(F0.38109974485050557
F0.0066962735077150731
tp95
a(F0.37898187038082076
F0.006677641082801531
tp96
a(F0.31097456796538631
F0.0060488984222802234
tp97
a(F0.3102686098088247
F0.0060420285751775094
tp98
a(F0.30850371441742064
F0.0060248196864101204
tp99
a(F0.30662115933325645
F0.0060064091935987766
tp100
a(F0.45734322575915876
F0.0073355888263187275
tp101
a(F0.45628428852431629
F0.0073270914556260438
tp102
a(F0.45381343497635074
F0.0073072258299438737
tp103
a(F0.45122492173562484
F0.0072863561302745315
tp104
a(F0.44310640293516634
F0.0072205099009321257
tp105
a(F0.44216512539308428
F0.0072128366682641118
tp106
a(F0.43969427184511861
F0.0071926554855453835
tp107
a(F0.43710575860439277
F0.007171452381570723
tp108
a(F0.42628106687044814
F0.0070820971016709354
tp109
a(F0.42545744902112631
F0.0070752521322135784
tp110
a(F0.4229865954731607
F0.0070546773749820442
tp111
a(F0.42051574192519509
F0.0070340424363074666
tp112
a(F0.39780742122246354
F0.0068414836811023141
tp113
a(F0.39698380337314165
F0.0068343977302821775
tp114
a(F0.39451294982517604
F0.0068130956595645218
tp115
a(F0.39239507535549123
F0.0067947835879422257
tp116
a(F0.35733248691293157
F0.0064841060003240046
tp117
a(F0.35650886906360968
F0.0064766290615052716
tp118
a(F0.35474397367220573
F0.0064605779115206137
tp119
a(F0.35274375889528115
F0.0064423382629849972
tp120
a(F0.29273731558754484
F0.0058688484911007819
tp121
a(F0.29214901712374358
F0.0058629483704867912
tp122
a(F0.2905017814250998
F0.0058463963557722929
tp123
a(F0.28861922634093551
F0.0058274221999079926
tp124
a(F0.32627032802422101
F0.0061958749625957961
tp125
a(F0.32556436986765941
F0.006189168258523824
tp126
a(F0.32344649539797465
F0.006169004398840292
tp127
a(F0.32121096123552956
F0.0061476485756915633
tp128
a(F0.317916489838242
F0.0061160409185837027
tp129
a(F0.31732819137444074
F0.0061103794891387876
tp130
a(F0.31521031690475587
F0.0060899547651751939
tp131
a(F0.31297478274231083
F0.0060683207544733227
tp132
a(F0.3076800965680988
F0.0060167720274788431
tp133
a(F0.30709179810429749
F0.0060110171031323521
tp134
a(F0.30497392363461268
F0.0059902535968639706
tp135
a(F0.30273838947216758
F0.0059682581958250902
tp136
a(F0.29038412173233952
F0.005845212275485563
tp137
a(F0.2897958232685382
F0.0058392882724682222
tp138
a(F0.28767794879885339
F0.005817911916622405
tp139
a(F0.28579539371468909
F0.0057988445587694388
tp140
a(F0.26179281639159457
F0.0055499966075196897
tp141
a(F0.26120451792779326
F0.005543757148990012
tp142
a(F0.25967494192190976
F0.005527501595121628
tp143
a(F0.25791004653050575
F0.0055086855813855943
tp144
a(F0.22072958361826134
F0.0050961725825982712
tp145
a(F0.22037660453998054
F0.005092096187399156
tp146
a(F0.2189646882268573
F0.0050757578687443067
tp147
a(F0.21731745252821361
F0.0050566297764334679
tp148
asS'H_400_X_150'
p149
(lp150
(F0.20444832957667228
F0.0047701165274794954
tp151
a(F0.20277890935693893
F0.0047506014455430887
tp152
a(F0.19754805933510791
F0.004688928268613942
tp153
a(F0.19287368271985467
F0.0046331215236019279
tp154
a(F0.19498828166485016
F0.0046584502431771162
tp155
a(F0.19343015612643244
F0.0046398003817954402
tp156
a(F0.18842189546723248
F0.004579339997084539
tp157
a(F0.18408140289592592
F0.0045262877804468117
tp158
a(F0.18319104544540146
F0.0045153282297867433
tp159
a(F0.18163291990698374
F0.0044960847342394748
tp160
a(F0.17695854329173047
F0.0044378536120198648
tp161
a(F0.17295193476437054
F0.004387326117638062
tp162
a(F0.16159987727018407
F0.0042408969383159658
tp163
a(F0.16015304641308184
F0.0042218695221736824
tp164
a(F0.15636902724835303
F0.0041716952255921808
tp165
a(F0.15269630276493976
F0.0041224126860719907
tp166
a(F0.1354456271610289
F0.0038825736194529558
tp167
a(F0.13433268034787338
F0.0038665893044879641
tp168
a(F0.13121642927103788
F0.0038214775518227322
tp169
a(F0.12810017819420239
F0.0037758268642231725
tp170
a(F0.099720034458736173
F0.0033314125316239482
tp171
a(F0.098940971689527299
F0.0033183736849904596
tp172
a(F0.096937667425847321
F0.0032846075570199876
tp173
a(F0.094600479118220698
F0.0032447696645156602
tp174
a(F0.18497176034645033
F0.0045372208586463118
tp175
a(F0.18363622417066372
F0.004520811326196395
tp176
a(F0.1787392581927793
F0.0044601265429518762
tp177
a(F0.17439876562147272
F0.0044056390049194644
tp178
a(F0.17718113265436156
F0.0044406438377667746
tp179
a(F0.17595689115989049
F0.0044252758249532414
tp180
a(F0.17117121986332168
F0.0043646817026082177
tp181
a(F0.16694202197333061
F0.0043104244725660152
tp182
a(F0.16705331665464621
F0.0043118610413352999
tp183
a(F0.16582907516017509
F0.0042960323640313389
tp184
a(F0.16126599322623739
F0.0042365135811360663
tp185
a(F0.157370679380193
F0.004185035198183017
tp186
a(F0.14991393573205092
F0.0040846815912698765
tp187
a(F0.14868969423757983
F0.0040679690430334616
tp188
a(F0.14501696975416653
F0.0040174142721578097
tp189
a(F0.14134424527075326
F0.0039662151647629944
tp190
a(F0.12776629415025573
F0.0037709029409840303
tp191
a(F0.1268759366997313
F0.003757740935935974
tp192
a(F0.12387098030421133
F0.0037129747207868833
tp193
a(F0.1207547292273758
F0.0036659731459336652
tp194
a(F0.095490836568745116
F0.0032600034086598924
tp195
a(F0.094823068480851799
F0.0032485847977141266
tp196
a(F0.092931058898487379
F0.0032160119067603135
tp197
a(F0.090593870590860742
F0.0031753135209853472
tp198
a(F0.12865665160078013
F0.0037840191647288278
tp199
a(F0.12743241010630904
F0.0037659725798330794
tp200
a(F0.12398227498552687
F0.0037146423493105724
tp201
a(F0.12119990795263803
F0.0036727244834132739
tp202
a(F0.12375968562289577
F0.0037113063429355035
tp203
a(F0.12264673880974022
F0.0036945811278441291
tp204
a(F0.11930789837027363
F0.0036439449128037155
tp205
a(F0.11652553133738477
F0.0036012042257166994
tp206
a(F0.11763847815054033
F0.0036183610842771235
tp207
a(F0.11652553133738477
F0.0036012042257166994
tp208
a(F0.11329798557923371
F0.0035509805967837982
tp209
a(F0.11062691322766043
F0.0035088726184625001
tp210
a(F0.10751066215082493
F0.0034590988540514752
tp211
a(F0.1063977153376694
F0.0034411480382582965
tp212
a(F0.10372664298609609
F0.0033976791601135303
tp213
a(F0.10116686531583835
F0.0033554931135408072
tp214
a(F0.093932711030327368
F0.003233297255005528
tp215
a(F0.09304235357980295
F0.003217937086164557
tp216
a(F0.090816459953491871
F0.0031792120043700489
tp217
a(F0.088701861008496349
F0.0031419811191407787
tp218
a(F0.073009310943003267
F0.0028505346857159481
tp219
a(F0.072341542855109936
F0.0028374687589354949
tp220
a(F0.07067212263537663
F0.0028045376386488332
tp221
a(F0.069002702415643338
F0.0027712152163375937
tp222
asS'H_400_X_50'
p223
(lp224
(F0.072748005826564266
F0.0028381700193906238
tp225
a(F0.071640730243207121
F0.0028164877307060806
tp226
a(F0.070422727101514274
F0.0027924427699226005
tp227
a(F0.068761813726478563
F0.0027593165350622917
tp228
a(F0.065882897209749991
F0.002700935457229302
tp229
a(F0.064775621626392846
F0.002678142345426876
tp230
a(F0.063668346043035701
F0.0026551535738293325
tp231
a(F0.062450342901342847
F0.0026296338122814358
tp232
a(F0.059460698826278566
F0.0025659185485843263
tp233
a(F0.058796333476264277
F0.0025515435416467351
tp234
a(F0.057799785451242848
F0.0025298278825533291
tp235
a(F0.056692509867885703
F0.0025054786356292031
tp236
a(F0.050381039042749987
F0.0023618995405435849
tp237
a(F0.049827401251071421
F0.0023488862209023777
tp238
a(F0.048941580784385701
F0.0023279136026375935
tp239
a(F0.047834305201028562
F0.0023014290820260463
tp240
a(F0.038865372975835713
F0.0020744801405222324
tp241
a(F0.038422462742492849
F0.002062625871243058
tp242
a(F0.037647369834142845
F0.0020417152934472187
tp243
a(F0.036761549367457139
F0.0020175521311967012
tp244
a(F0.026131703767228565
F0.0017010290277644897
tp245
a(F0.025799521092221424
F0.0016901828234757439
tp246
a(F0.025245883300542851
F0.0016719494657128527
tp247
a(F0.02447079039219285
F0.0016460834944414487
tp248
a(F0.065107804301399994
F0.0026850005956970541
tp249
a(F0.06422198383471428
F0.002666672732356489
tp250
a(F0.063114708251357135
F0.0026435842221771062
tp251
a(F0.061675249992992842
F0.0026132642119519557
tp252
a(F0.058685605917928561
F0.0025491398260480283
tp253
a(F0.057799785451242848
F0.0025298278825533291
tp254
a(F0.056803237426221419
F0.002507924198569279
tp255
a(F0.055695961842864274
F0.0024833601961897251
tp256
a(F0.053592138234485706
F0.0024360062833857143
tp257
a(F0.053038500442807127
F0.0024233909407728117
tp258
a(F0.052041952417785697
F0.0024005162616080804
tp259
a(F0.051045404392764282
F0.0023774215008428626
tp260
a(F0.046062664267657136
F0.0022584079225851615
tp261
a(F0.045619754034314272
F0.0022475239656331745
tp262
a(F0.044733933567628566
F0.0022255963782086721
tp263
a(F0.04373738554260713
F0.0022006666965082781
tp264
a(F0.036540094250785707
F0.0020114659872208555
tp265
a(F0.036207911575778566
F0.0020023020854060469
tp266
a(F0.035432818667428569
F0.0019807547793698446
tp267
a(F0.034657725759078564
F0.0019589704823635193
tp268
a(F0.02458151795052857
F0.0016498034618849481
tp269
a(F0.024249335275521425
F0.0016386182247011022
tp270
a(F0.023695697483842853
F0.0016198045330988696
tp271
a(F0.023031332133828568
F0.0015969355567453912
tp272
a(F0.044844661125964282
F0.0022283491267910752
tp273
a(F0.044623206009292843
F0.0022228402206457775
tp274
a(F0.04418029577595
F0.0022117812454717609
tp275
a(F0.043073020192592848
F0.0021838888149516046
tp276
a(F0.040969196584214281
F0.0021298871107985821
tp277
a(F0.040747741467542849
F0.0021241228590634662
tp278
a(F0.040304831234199999
F0.0021125471714723907
tp279
a(F0.03930828320917857
F0.0020862670543631509
tp280
a(F0.037647369834142845
F0.0020417152934472187
tp281
a(F0.037425914717471427
F0.0020357013914487272
tp282
a(F0.036983004484128564
F0.0020236199708557751
tp283
a(F0.03609718401744285
F0.0019992381171452327
tp284
a(F0.032332447034028565
F0.0018921133462604157
tp285
a(F0.03211099191735714
F0.001885622372254533
tp286
a(F0.031778809242349999
F0.0018758437979271741
tp287
a(F0.030892988775664279
F0.0018495148598543171
tp288
a(F0.026020976208892849
F0.0016974213269316536
tp289
a(F0.025799521092221424
F0.0016901828234757439
tp290
a(F0.02546733841721428
F0.0016792665661673465
tp291
a(F0.024802973067199991
F0.0016572183462650711
tp292
a(F0.017716409333714284
F0.0014006051363600811
tp293
a(F0.017494954217042853
F0.001391823826368935
tp294
a(F0.017273499100371424
F0.0013829867603481548
tp295
a(F0.016719861308692855
F0.0013606430165268699
tp296
asS'H_1000_X_350'
p297
(lp298
(F0.63321271973998439
F0.0083665830342549707
tp299
a(F0.62536388889125205
F0.0083145683980139305
tp300
a(F0.61806779260933187
F0.008265923222586246
tp301
a(F0.60922403954033755
F0.0082065727997364269
tp302
a(F0.62049982470330534
F0.008282170027406931
tp303
a(F0.61342482224810979
F0.0082348175862871596
tp304
a(F0.60657091361963944
F0.008188683791433074
tp305
a(F0.5983904420308197
F0.0081332783274695401
tp306
a(F0.60115411486488046
F0.0081520385090745676
tp307
a(F0.59441075314977243
F0.0081061873917485493
tp308
a(F0.58810957908811401
F0.0080631072600497768
tp309
a(F0.58059238897946897
F0.0080114103953921947
tp310
a(F0.57429121491781054
F0.0079678178430686031
tp311
a(F0.56810058776951466
F0.0079247565550810851
tp312
a(F0.56246269518803083
F0.0078853354294252231
tp313
a(F0.55582988038628511
F0.0078387038234207489
tp314
a(F0.52609276069179223
F0.0076261347245374462
tp315
a(F0.52067596193703336
F0.0075867727298339297
tp316
a(F0.51570135083572399
F0.0075504432023374354
tp317
a(F0.51006345825424027
F0.0075090572596679273
tp318
a(F0.44185601270962244
F0.0069889783484911629
tp319
a(F0.43765523000185025
F0.0069556764440008136
tp320
a(F0.43444936951433982
F0.0069301541694296344
tp321
a(F0.43002749297984272
F0.006894796009303289
tp322
a(F0.57086426060357531
F0.0079440091867173483
tp323
a(F0.56378925814837999
F0.0078946286977410289
tp324
a(F0.55737753717335925
F0.0078496093095176724
tp325
a(F0.54930761249790194
F0.007792577304597462
tp326
a(F0.56025175692078222
F0.0078698222618728483
tp327
a(F0.55395058285912391
F0.0078254410157123904
tp328
a(F0.54798104953755289
F0.007783162185608105
tp329
a(F0.54046385942890773
F0.0077295932262836852
tp330
a(F0.54355917300305567
F0.0077516958664102364
tp331
a(F0.53758963968148465
F0.0077090126035963685
tp332
a(F0.53217284092672568
F0.0076700759409385009
tp333
a(F0.52509783847153035
F0.0076189202159039704
tp334
a(F0.52211307181074484
F0.0075972355837405263
tp335
a(F0.51647517922926101
F0.0075561059344149816
tp336
a(F0.51161111504131418
F0.0075204407856007387
tp337
a(F0.50530994097965587
F0.0074739851663387282
tp338
a(F0.48165290152009638
F0.007296933710477565
tp339
a(F0.47656774350542469
F0.0072583119974703302
tp340
a(F0.47225641388429002
F0.0072254057927923524
tp341
a(F0.46672906821616861
F0.0071829978329259773
tp342
a(F0.40902357944098156
F0.0067243062244109727
tp343
a(F0.40504389055993417
F0.0066915134220675073
tp344
a(F0.40216967081251098
F0.0066677294303463331
tp345
a(F0.39785834119137631
F0.0066318935134848317
tp346
a(F0.39443138687714113
F0.0066032698227869975
tp347
a(F0.38945677577583188
F0.0065614971195681569
tp348
a(F0.38536653998142206
F0.0065269503987777245
tp349
a(F0.37928645974648856
F0.006475256551298712
tp350
a(F0.38713529059522089
F0.0065419119092944115
tp351
a(F0.38260286714736136
F0.0065035041329083278
tp352
a(F0.37884427209303889
F0.0064714808911810169
tp353
a(F0.373206379511555
F0.006423146682286579
tp354
a(F0.37784934987277702
F0.0064629775912063486
tp355
a(F0.37342747333827991
F0.0064250489914301047
tp356
a(F0.3698899721106822
F0.0063945441354759849
tp357
a(F0.3645837202692857
F0.0063485120255033171
tp358
a(F0.36745794001670884
F0.0063734873546091838
tp359
a(F0.36314661039557417
F0.0063359874429530496
tp360
a(F0.35971965608133893
F0.0063060207465235928
tp361
a(F0.35474504498002968
F0.006262265544765549
tp362
a(F0.34236379068343781
F0.0061520127037510454
tp363
a(F0.33860519562911523
F0.0061181499838823495
tp364
a(F0.33573097588169215
F0.0060921279618764276
tp365
a(F0.33141964626055748
F0.0060528851733509855
tp366
a(F0.29626572781130556
F0.0057228718092067121
tp367
a(F0.29317041423715762
F0.0056928977140909554
tp368
a(F0.29118056979663387
F0.0056735450312948733
tp369
a(F0.28786416239576101
F0.0056411430242914364
tp370
asS'H_200_X_50'
p371
(lp372
(F0.0041250483525895904
F0.00067815377175136098
tp373
a(F0.0040135605592763572
F0.00066892675987939294
tp374
a(F0.0036790971793366615
F0.00064044861301214566
tp375
a(F0.0035676093860234292
F0.00063067019737048557
tp376
a(F0.0037905849726498938
F0.00065007995967191238
tp377
a(F0.0036790971793366615
F0.00064044861301214566
tp378
a(F0.0033446337993969645
F0.00061064379284130868
tp379
a(F0.0032331460060837326
F0.00060038014097550327
tp380
a(F0.0034561215927101973
F0.00062073776249997332
tp381
a(F0.0034561215927101973
F0.00062073776249997332
tp382
a(F0.0031216582127705007
F0.00058993795065236424
tp383
a(F0.0030101704194572683
F0.00057930756732676753
tp384
a(F0.0026757070395175718
F0.00054617641233258626
tp385
a(F0.0026757070395175718
F0.00054617641233258626
tp386
a(F0.0023412436595778752
F0.00051090125192147795
tp387
a(F0.0023412436595778752
F0.00051090125192147795
tp388
a(F0.0022297558662646433
F0.00049858856901966733
tp389
a(F0.0022297558662646433
F0.00049858856901966733
tp390
a(F0.0020067802796381786
F0.0004730026480278641
tp391
a(F0.0020067802796381786
F0.0004730026480278641
tp392
a(F0.0015608291063852503
F0.00041714912538558154
tp393
a(F0.0015608291063852503
F0.00041714912538558154
tp394
a(F0.0013378535197587859
F0.00038620504488451167
tp395
a(F0.0013378535197587859
F0.00038620504488451167
tp396
a(F0.0034561215927101973
F0.00062073776249997332
tp397
a(F0.0033446337993969645
F0.00061064379284130868
tp398
a(F0.0030101704194572683
F0.00057930756732676753
tp399
a(F0.0028986826261440364
F0.00056847843363157008
tp400
a(F0.0032331460060837326
F0.00060038014097550327
tp401
a(F0.0031216582127705007
F0.00058993795065236424
tp402
a(F0.0027871948328308045
F0.00055743896656616082
tp403
a(F0.0026757070395175718
F0.00054617641233258626
tp404
a(F0.0028986826261440364
F0.00056847843363157008
tp405
a(F0.0028986826261440364
F0.00056847843363157008
tp406
a(F0.0025642192462043399
F0.00053467667363617179
tp407
a(F0.0024527314528911075
F0.00052292410278432133
tp408
a(F0.0024527314528911075
F0.00052292410278432133
tp409
a(F0.0024527314528911075
F0.00052292410278432133
tp410
a(F0.0021182680729514109
F0.0004859640244907287
tp411
a(F0.0021182680729514109
F0.0004859640244907287
tp412
a(F0.0021182680729514109
F0.0004859640244907287
tp413
a(F0.0021182680729514109
F0.0004859640244907287
tp414
a(F0.0018952924863249469
F0.00045967594779748654
tp415
a(F0.0018952924863249469
F0.00045967594779748654
tp416
a(F0.0014493413130720182
F0.00040197495537918981
tp417
a(F0.0014493413130720182
F0.00040197495537918981
tp418
a(F0.0012263657264455538
F0.00036976317912468476
tp419
a(F0.0012263657264455538
F0.00036976317912468476
tp420
a(F0.0025642192462043399
F0.00053467667363617179
tp421
a(F0.0024527314528911075
F0.00052292410278432133
tp422
a(F0.0022297558662646433
F0.00049858856901966733
tp423
a(F0.0021182680729514109
F0.0004859640244907287
tp424
a(F0.0024527314528911075
F0.00052292410278432133
tp425
a(F0.0023412436595778752
F0.00051090125192147795
tp426
a(F0.0021182680729514109
F0.0004859640244907287
tp427
a(F0.0020067802796381786
F0.0004730026480278641
tp428
a(F0.0021182680729514109
F0.0004859640244907287
tp429
a(F0.0021182680729514109
F0.0004859640244907287
tp430
a(F0.0018952924863249469
F0.00045967594779748654
tp431
a(F0.0017838046930117146
F0.00044595117325292865
tp432
a(F0.0017838046930117146
F0.00044595117325292865
tp433
a(F0.0017838046930117146
F0.00044595117325292865
tp434
a(F0.0015608291063852503
F0.00041714912538558154
tp435
a(F0.0015608291063852503
F0.00041714912538558154
tp436
a(F0.0015608291063852503
F0.00041714912538558154
tp437
a(F0.0015608291063852503
F0.00041714912538558154
tp438
a(F0.0014493413130720182
F0.00040197495537918981
tp439
a(F0.0014493413130720182
F0.00040197495537918981
tp440
a(F0.0012263657264455538
F0.00036976317912468476
tp441
a(F0.0012263657264455538
F0.00036976317912468476
tp442
a(F0.0011148779331323216
F0.00035255535817590376
tp443
a(F0.0011148779331323216
F0.00035255535817590376
tp444
asS'obs'
p445
(lp446
(F8.0
F2.8284271247461903
tp447
a(F7.0
F2.6457513110645903
tp448
a(F5.0
F2.2360679774997898
tp449
a(F2.0
F1.4142135623730951
tp450
a(F5.0
F2.2360679774997898
tp451
a(F4.0
F2.0
tp452
a(F3.0
F1.7320508075688774
tp453
a(F1.0
F1.0
tp454
a(F5.0
F2.2360679774997898
tp455
a(F4.0
F2.0
tp456
a(F3.0
F1.7320508075688774
tp457
a(F1.0
F1.0
tp458
a(F2.0
F1.4142135623730951
tp459
a(F2.0
F1.4142135623730951
tp460
a(F1.0
F1.0
tp461
a(F0.0
F0.0
tp462
a(F1.0
F1.0
tp463
a(F1.0
F1.0
tp464
a(F1.0
F1.0
tp465
a(F0.0
F0.0
tp466
a(F1.0
F1.0
tp467
a(F1.0
F1.0
tp468
a(F1.0
F1.0
tp469
a(F0.0
F0.0
tp470
a(F3.0
F1.7320508075688774
tp471
a(F2.0
F1.4142135623730951
tp472
a(F2.0
F1.4142135623730951
tp473
a(F1.0
F1.0
tp474
a(F2.0
F1.4142135623730951
tp475
a(F1.0
F1.0
tp476
a(F1.0
F1.0
tp477
a(F0.0
F0.0
tp478
a(F2.0
F1.4142135623730951
tp479
a(F1.0
F1.0
tp480
a(F1.0
F1.0
tp481
a(F0.0
F0.0
tp482
a(F1.0
F1.0
tp483
a(F1.0
F1.0
tp484
a(F1.0
F1.0
tp485
a(F0.0
F0.0
tp486
a(F1.0
F1.0
tp487
a(F1.0
F1.0
tp488
a(F1.0
F1.0
tp489
a(F0.0
F0.0
tp490
a(F1.0
F1.0
tp491
a(F1.0
F1.0
tp492
a(F1.0
F1.0
tp493
a(F0.0
F0.0
tp494
a(F1.0
F1.0
tp495
a(F1.0
F1.0
tp496
a(F1.0
F1.0
tp497
a(F0.0
F0.0
tp498
a(F1.0
F1.0
tp499
a(F1.0
F1.0
tp500
a(F1.0
F1.0
tp501
a(F0.0
F0.0
tp502
a(F1.0
F1.0
tp503
a(F1.0
F1.0
tp504
a(F1.0
F1.0
tp505
a(F0.0
F0.0
tp506
a(F1.0
F1.0
tp507
a(F1.0
F1.0
tp508
a(F1.0
F1.0
tp509
a(F0.0
F0.0
tp510
a(F1.0
F1.0
tp511
a(F1.0
F1.0
tp512
a(F1.0
F1.0
tp513
a(F0.0
F0.0
tp514
a(F1.0
F1.0
tp515
a(F1.0
F1.0
tp516
a(F1.0
F1.0
tp517
a(F0.0
F0.0
tp518
as.