(dp0
S'bkg'
p1
(lp2
(F8.3321189061636005
F2.142560259483139
tp3
a(F7.1049762305377513
F1.9202684771659186
tp4
a(F4.5068939342726377
F1.4791476054375736
tp5
a(F3.2829710416110713
F1.9504902028627509
tp6
a(F6.852704808887486
F1.976321172487703
tp7
a(F5.9380731367401349
F2.01507217116158
tp8
a(F3.7848060073556953
F1.5003773547547443
tp9
a(F2.6617760126456105
F1.6737838586317668
tp10
a(F4.4869703253649913
F1.1292933988015392
tp11
a(F3.8587194942949918
F0.96505249909423063
tp12
a(F2.4011772041754806
F0.50407830048048829
tp13
a(F1.6443766505849353
F0.66012763839126742
tp14
a(F2.7971716970251275
F1.1178809608916926
tp15
a(F2.3408057690703861
F0.91985887649697073
tp16
a(F1.5026035335086187
F0.49825397932989779
tp17
a(F1.0143911466932025
F0.3792686514201149
tp18
a(F1.4813363119982532
F0.77918010673624138
tp19
a(F1.2287496116523715
F0.53034443618600469
tp20
a(F0.78065133337413894
F0.32394061690125264
tp21
a(F0.51496121960961594
F0.16063124611502697
tp22
a(F0.61220002251627292
F0.47758292444171113
tp23
a(F0.51197677868757197
F0.40845392106723472
tp24
a(F0.33417987211508587
F0.21028262753540528
tp25
a(F0.22067292849778708
F0.095637855330137314
tp26
a(F2.9285218518848146
F0.61733138528802955
tp27
a(F2.4815501730103806
F0.47953628255433578
tp28
a(F1.5553302082093992
F0.52941527794142662
tp29
a(F1.0373137575176581
F0.44390969820933396
tp30
a(F2.5732810218450464
F1.0895741595003348
tp31
a(F2.2090694158851067
F1.0169662218303714
tp32
a(F1.389006838144446
F0.72688238234485936
tp33
a(F0.90437029688425086
F0.54259026265229737
tp34
a(F1.889001223018054
F0.68693745365136027
tp35
a(F1.6048938106305408
F0.56341663850442658
tp36
a(F1.0186714205291798
F0.54293748262359698
tp37
a(F0.64854512826846655
F0.33920094853584348
tp38
a(F1.342913404454702
F0.67419573809170419
tp39
a(F1.123739937365833
F0.51600550013624924
tp40
a(F0.71984655846541512
F0.43414247262550737
tp41
a(F0.4591865970305033
F0.22604774229493599
tp42
a(F0.79923462881735552
F0.52246883593439852
tp43
a(F0.66660562601821827
F0.38360053036527553
tp44
a(F0.42183933041809646
F0.25703564931853695
tp45
a(F0.266594854500668
F0.10449390167544874
tp46
a(F0.42510794672081115
F0.24500100275502604
tp47
a(F0.35552348181231874
F0.17600522507288235
tp48
a(F0.22712080717925362
F0.11927297752968896
tp49
a(F0.14520713741117008
F0.038633828467908048
tp50
a(F0.42708998647681501
F0.27822916097365052
tp51
a(F0.3638808580890518
F0.22868003854721428
tp52
a(F0.22057315941898237
F0.29446319603822724
tp53
a(F0.1426425797760188
F0.23374956780189984
tp54
a(F0.36843049663598409
F0.28288061442093304
tp55
a(F0.31525875644206908
F0.15057070434234787
tp56
a(F0.19427101332832555
F0.15228521753814897
tp57
a(F0.12426483337557744
F0.16017691460994576
tp58
a(F0.28339889636475779
F0.32735786898588248
tp59
a(F0.23961516935408095
F0.19504378573121176
tp60
a(F0.14784324107127
F0.16199625954906827
tp61
a(F0.094638106774211972
F0.16172307243216946
tp62
a(F0.22161762818268804
F0.19592516629251039
tp63
a(F0.18597528668892438
F0.16090876542580099
tp64
a(F0.11745756803573106
F0.089878780577204873
tp65
a(F0.075207625329284725
F0.070216126679057952
tp66
a(F0.15651113313794818
F0.19756438274166271
tp67
a(F0.13143778312924373
F0.16242895922525288
tp68
a(F0.083172526129292823
F0.091957312125193952
tp69
a(F0.053294550089953881
F0.071895699475594585
tp70
a(F0.10882010383029346
F0.11480534649149815
tp71
a(F0.091436338523959854
F0.094591768814412072
tp72
a(F0.057969295970663581
F0.056092874784812466
tp73
a(F0.037165066300868771
F0.08081452289227517
tp74
asS'H_1000_X_150'
p75
(lp76
(F0.39330153274793755
F0.0067800532475188417
tp77
a(F0.38967824968250336
F0.0067487504292435196
tp78
a(F0.37869152038731585
F0.0066529318612000409
tp79
a(F0.3682891915865531
F0.0065609204484510771
tp80
a(F0.38348360444159979
F0.0066948936965347287
tp81
a(F0.3798603213761656
F0.0066631908215902258
tp82
a(F0.36922423237763297
F0.0065692438523034273
tp83
a(F0.35917254387352521
F0.0064792069302272862
tp84
a(F0.36980863287205779
F0.0065744406285708577
tp85
a(F0.36641911000439359
F0.0065442418820408606
tp86
a(F0.35636742150028577
F0.0064538561700999055
tp87
a(F0.34701701358948789
F0.0063686248800747967
tp88
a(F0.34713389368837289
F0.0063696973099687474
tp89
a(F0.34386125091959358
F0.0063396006980087445
tp90
a(F0.33404332261325581
F0.0062484411319066301
tp91
a(F0.32527731519688269
F0.0061659098894851286
tp92
a(F0.31557626698942987
F0.0060732680898734851
tp93
a(F0.31265426451730555
F0.0060450857192922832
tp94
a(F0.3033038566065076
F0.0059540057736252316
tp95
a(F0.29547288998121435
F0.0058766402475252284
tp96
a(F0.26496718417223614
F0.0055650148865321178
tp97
a(F0.2622789418978817
F0.0055367128031414779
tp98
a(F0.25491549566812832
F0.0054584382694139733
tp99
a(F0.24825333003168484
F0.0053866384473646852
tp100
a(F0.35905566377464021
F0.0064781526291983835
tp101
a(F0.35566614090697596
F0.0064475029057181853
tp102
a(F0.34514693200732827
F0.006351441375220427
tp103
a(F0.33579652409653038
F0.0062648169120600034
tp104
a(F0.35110781705046201
F0.0064060531043806813
tp105
a(F0.3477182941827977
F0.0063750567533316822
tp106
a(F0.33743284548092001
F0.006280062447686972
tp107
a(F0.32831619776789206
F0.0061946452409036238
tp108
a(F0.34023796785415938
F0.006306111902528908
tp109
a(F0.33708220518426507
F0.0062767986644707676
tp110
a(F0.32738115697681225
F0.0061858178117793787
tp111
a(F0.31884890975820912
F0.0061046778868262697
tp112
a(F0.32165403213144855
F0.0061314725052204477
tp113
a(F0.31861514956043918
F0.0061024396913754849
tp114
a(F0.3091478615507563
F0.0060110924654450844
tp115
a(F0.3010831347276931
F0.0059321687905496004
tp116
a(F0.29512224968455941
F0.0058731522818914975
tp117
a(F0.29231712731132004
F0.0058451736283808217
tp118
a(F0.28331735969717703
F0.0057544905089187354
tp119
a(F0.27618767366519364
F0.0056816232371390812
tp120
a(F0.251993493196004
F0.0054270640684553357
tp121
a(F0.24942213102053457
F0.0053993039679000312
tp122
a(F0.24240932508743612
F0.0053228588077140803
tp123
a(F0.23621467984653249
F0.0052544072109558864
tp124
a(F0.25549989616255325
F0.0054646914943645101
tp125
a(F0.25269477378931388
F0.0054346103952547641
tp126
a(F0.24533132755956047
F0.0053548435854601185
tp127
a(F0.23925356241754181
F0.0052880979599421746
tp128
a(F0.25035717181161438
F0.0054094150328759128
tp129
a(F0.24755204943837497
F0.0053790248203122518
tp130
a(F0.24042236340639159
F0.0053009989255892341
tp131
a(F0.2343445982643729
F0.0052335666441060457
tp132
a(F0.24381188627405581
F0.0053382354179113984
tp133
a(F0.2411236439997014
F0.0053087244564198645
tp134
a(F0.23411083806660296
F0.0052309557351662515
tp135
a(F0.22826683312235427
F0.0051652541106416662
tp136
a(F0.2325913967810983
F0.0052139529587031186
tp137
a(F0.23002003460562889
F0.0051850520142261887
tp138
a(F0.22312410877141542
F0.0051067375002857495
tp139
a(F0.21751386402493664
F0.0050421267274918229
tp140
a(F0.21517626204723717
F0.0050149598987210423
tp141
a(F0.21272177997065272
F0.0049862754314174808
tp142
a(F0.20617649443309419
F0.0049089641531689099
tp143
a(F0.20103377008215534
F0.004847354631798818
tp144
a(F0.18829383930369314
F0.0046912474414857993
tp145
a(F0.18595623732599367
F0.004662036401288587
tp146
a(F0.18057975277728489
F0.004594146205905209
tp147
a(F0.17590454882188591
F0.0045342850660957312
tp148
asS'H_400_X_150'
p149
(lp150
(F0.10959976552722989
F0.0034939129128681895
tp151
a(F0.10670383676329899
F0.0034474444833183866
tp152
a(F0.097904668595970579
F0.0033022425125860165
tp153
a(F0.091110374188286616
F0.003185599528795192
tp154
a(F0.10603554551008418
F0.0034366317714260779
tp155
a(F0.1031396167461533
F0.0033893781074454407
tp156
a(F0.094451830454360702
F0.0032434891742992361
tp157
a(F0.088103063548819943
F0.0031325843098817916
tp158
a(F0.098238814222577978
F0.0033078729386909686
tp159
a(F0.095565649209718717
F0.0032625574701106914
tp160
a(F0.088214445424355747
F0.0031345638262309239
tp161
a(F0.082199824145422401
F0.0030258173411543379
tp162
a(F0.086320953540247103
F0.0031007401863670566
tp163
a(F0.084427461656138458
F0.0030665434981404995
tp164
a(F0.077855930999526091
F0.0029447817603879003
tp165
a(F0.072843746600414969
F0.0028484158961445513
tp166
a(F0.071507164093985345
F0.0028221626549570977
tp167
a(F0.069836435960948295
F0.0027889986048878555
tp168
a(F0.064712869686301369
F0.0026847422216973163
tp169
a(F0.060146212789333464
F0.0025882808941170674
tp170
a(F0.051569808373076648
F0.0023966522437798982
tp171
a(F0.050678753368790234
F0.0023758566034237497
tp172
a(F0.046780387725037141
F0.00228264918967122
tp173
a(F0.043884458961106265
F0.0022108671027363858
tp174
a(F0.10057783360882985
F0.0033470207266581673
tp175
a(F0.097681904844898984
F0.0032984835557471957
tp176
a(F0.089773791681856979
F0.0031621469433733905
tp177
a(F0.08331364290078043
F0.003046248480345791
tp178
a(F0.097347759218291571
F0.0032928370747641071
tp179
a(F0.094451830454360702
F0.0032434891742992361
tp180
a(F0.086655099166854516
F0.0031067358223616681
tp181
a(F0.080529096012385365
F0.0029949093056488726
tp182
a(F0.091110374188286616
F0.003185599528795192
tp183
a(F0.088437209175427356
F0.0031385191133894972
tp184
a(F0.081642914767743394
F0.0030155498621380716
tp185
a(F0.075851057239881642
F0.0029066188289405171
tp186
a(F0.081308769141135995
F0.0030093725599279536
tp187
a(F0.079415277257027322
F0.0029741255062763379
tp188
a(F0.073289274102558186
F0.0028571133695043435
tp189
a(F0.068388471578982868
F0.0027599340987592533
tp190
a(F0.068388471578982868
F0.0027599340987592533
tp191
a(F0.066717743445945832
F0.0027260130954428583
tp192
a(F0.061816940922370514
F0.002623983006770345
tp193
a(F0.057361665900938393
F0.0025276570044024203
tp194
a(F0.05056737149325443
F0.0023732443358900832
tp195
a(F0.049676316488968017
F0.0023522417605874139
tp196
a(F0.045777950845214924
F0.0022580597917960061
tp197
a(F0.042882022081284048
F0.0021854702116892656
tp198
a(F0.06905676283219768
F0.0027733863349128428
tp199
a(F0.066717743445945832
F0.0027260130954428583
tp200
a(F0.061928322797906311
F0.0026263458915415949
tp201
a(F0.057584429652010008
F0.002532560320367585
tp202
a(F0.067608798450232238
F0.0027441564777011054
tp203
a(F0.06526977906398039
F0.0026962697209206663
tp204
a(F0.060591740291476667
F0.0025978494328276489
tp205
a(F0.056470610896651972
F0.0025079478771142024
tp206
a(F0.06437872405969397
F0.002677801902749832
tp207
a(F0.062262468424513717
F0.0026334218250426635
tp208
a(F0.058141339029689015
F0.0025447772765587423
tp209
a(F0.054131591510400125
F0.0024554588549121118
tp210
a(F0.058809630282903834
F0.00255936064681728
tp211
a(F0.057250284025402595
F0.0025252017760382527
tp212
a(F0.053463300257185299
F0.0024402546291276781
tp213
a(F0.049899080240039619
F0.0023575099458214648
tp214
a(F0.049342170862360604
F0.0023443172851936572
tp215
a(F0.04789420648039517
F0.0023096637298718205
tp216
a(F0.044775513965392692
F0.0022331996604748458
tp217
a(F0.041656821450390215
F0.0021540229576317241
tp218
a(F0.037647073931101317
F0.0020477308668086949
tp219
a(F0.036978782677886499
F0.002029474357978896
tp220
a(F0.03452838141609884
F0.0019610802842669763
tp221
a(F0.032300743905382789
F0.0018967649926607101
tp222
asS'H_400_X_50'
p223
(lp224
(F0.042991190685034049
F0.0021825470298288746
tp225
a(F0.042104774382249847
F0.0021599293517808953
tp226
a(F0.039999535663137353
F0.0021052387191124924
tp227
a(F0.03833750509541696
F0.0020610370425058538
tp228
a(F0.040221139738833407
F0.0021110623504844569
tp229
a(F0.039334723436049199
F0.0020876703558997899
tp230
a(F0.037340286754784735
F0.0020340550302928874
tp231
a(F0.035789058224912372
F0.0019913564683355775
tp232
a(F0.037894296944024859
F0.0020490889010036082
tp233
a(F0.037229484716936705
F0.0020310349023757624
tp234
a(F0.035456652111368295
F0.0019820871093895235
tp235
a(F0.034016225619343955
F0.0019414085398291459
tp236
a(F0.033351413392255801
F0.0019223435096188933
tp237
a(F0.032797403203015676
F0.0019063103396397734
tp238
a(F0.031024570597447256
F0.0018540727185191799
tp239
a(F0.02958414410542292
F0.0018105202166423114
tp240
a(F0.027368103348462399
F0.0017413907152172988
tp241
a(F0.027035697234918322
F0.0017307831603846826
tp242
a(F0.025373666667197935
F0.0016767390895431702
tp243
a(F0.0243764483265657
F0.0016434598109112922
tp244
a(F0.020830783115428873
F0.0015192410010132589
tp245
a(F0.020498377001884796
F0.001507070650097713
tp246
a(F0.01916875254770848
F0.0014573732690325561
tp247
a(F0.018282336244924275
F0.0014232779463479491
tp248
a(F0.039334723436049199
F0.0020876703558997899
tp249
a(F0.038559109171113021
F0.0020669852137264622
tp250
a(F0.03656467248984855
F0.0020128189747517958
tp251
a(F0.035013443959976187
F0.0019696601084560291
tp252
a(F0.037007880641240658
F0.0020249811336123537
tp253
a(F0.036232266376304473
F0.0020036489089526252
tp254
a(F0.034348631732888033
F0.0019508711882888024
tp255
a(F0.032908205240863693
F0.0019095277433461876
tp256
a(F0.035013443959976187
F0.0019696601084560291
tp257
a(F0.034459433770736063
F0.0019540152212525466
tp258
a(F0.032797403203015676
F0.0019063103396397734
tp259
a(F0.03146777874883936
F0.0018672691321612435
tp260
a(F0.031024570597447256
F0.0018540727185191799
tp261
a(F0.030581362446055155
F0.0018407817032967276
tp262
a(F0.028919331878334766
F0.0017900617043339233
tp263
a(F0.027589707424158453
F0.0017484266659564438
tp264
a(F0.026149280932134113
F0.0017021732037430816
tp265
a(F0.025927676856438066
F0.0016949452593987913
tp266
a(F0.0243764483265657
F0.0016434598109112922
tp267
a(F0.023379229985933468
F0.0016094925677862268
tp268
a(F0.020165970888340719
F0.0014948012140790215
tp269
a(F0.019944366812644668
F0.0014865653320421429
tp270
a(F0.018614742358468352
F0.0014361585522964591
tp271
a(F0.017728326055684147
F0.0014015472359517746
tp272
a(F0.026260082969982144
F0.0017057756907437338
tp273
a(F0.025595270742893989
F0.0016840451768241286
tp274
a(F0.024044042213021623
F0.0016322159401582729
tp275
a(F0.023157625910237414
F0.0016018464790910993
tp276
a(F0.024819656477957801
F0.0016583330535346879
tp277
a(F0.02415484425086965
F0.001635972483539387
tp278
a(F0.02271441775884531
F0.0015864437513544091
tp279
a(F0.021938803493909132
F0.0015591228736287985
tp280
a(F0.023822438137325572
F0.0016246767962041569
tp281
a(F0.023379229985933468
F0.0016094925677862268
tp282
a(F0.022160407569605182
F0.0015669774466325526
tp283
a(F0.021384793304669001
F0.0015393111047205972
tp284
a(F0.021828001456061105
F0.00155518071087615
tp285
a(F0.021384793304669001
F0.0015393111047205972
tp286
a(F0.020165970888340719
F0.0014948012140790215
tp287
a(F0.019390356623404534
F0.0014657731845252148
tp288
a(F0.018614742358468352
F0.0014361585522964591
tp289
a(F0.018393138282772302
F0.0014275843947562999
tp290
a(F0.017285117904292043
F0.0013839170091587707
tp291
a(F0.016509503639355862
F0.001352511237328559
tp292
a(F0.015290681223027578
F0.0013016292250852392
tp293
a(F0.015069077147331526
F0.0012921627050853346
tp294
a(F0.014071858806699294
F0.0012486755511709083
tp295
a(F0.013407046579611136
F0.0012188224163282853
tp296
asS'H_1000_X_350'
p297
(lp298
(F0.42553023976752158
F0.0069121128996776629
tp299
a(F0.41688490244242948
F0.0068415372003902538
tp300
a(F0.39936967357600911
F0.0066962729946721655
tp301
a(F0.38297721579076949
F0.0065574060621637047
tp302
a(F0.41868133617231873
F0.0068562620755366005
tp303
a(F0.41037283017158083
F0.0067878917656292136
tp304
a(F0.39341898684575083
F0.0066461978695932372
tp305
a(F0.37713880616862927
F0.0065072309407088564
tp306
a(F0.40610630006309378
F0.0067525136771144165
tp307
a(F0.39802234827859212
F0.006684968080035044
tp308
a(F0.38151761338523438
F0.0065448983435196029
tp309
a(F0.36568654114058513
F0.0064076694138327731
tp310
a(F0.38544731216936717
F0.0065785187954632476
tp311
a(F0.37781246881733771
F0.0065130401050325793
tp312
a(F0.36209367368080669
F0.0063761140633408183
tp313
a(F0.34727309540922008
F0.0062442628772146659
tp314
a(F0.35917446886973653
F0.0063503598854349362
tp315
a(F0.35232556527453368
F0.0062895226834070892
tp316
a(F0.33817864965165567
F0.0061619575469297992
tp317
a(F0.32492995089372229
F0.0060400492735818599
tp318
a(F0.30820066178412842
F0.0058825061857341278
tp319
a(F0.30247452927010637
F0.0058276037464660355
tp320
a(F0.29057315580958998
F0.005711804761285604
tp321
a(F0.27934544499778197
F0.0056003659461064696
tp322
a(F0.38331404711512362
F0.0065602890722226094
tp323
a(F0.37556692665497615
F0.0064936560141122066
tp324
a(F0.3596235773022089
F0.0063543288607508085
tp325
a(F0.3441293363819139
F0.0062159349021329935
tp326
a(F0.37781246881733771
F0.0065130401050325793
tp327
a(F0.37040217968154454
F0.0064488514927293151
tp328
a(F0.35502021586936761
F0.006313528582438584
tp329
a(F0.33963825205719073
F0.006175240946494377
tp330
a(F0.36759525197859255
F0.0064243701520143703
tp331
a(F0.36029723995091734
F0.0063602776798355899
tp332
a(F0.34536438457121277
F0.0062270791183857682
tp333
a(F0.3304315291915082
F0.0060909684393089204
tp334
a(F0.35008002311217212
F0.006269447551813888
tp335
a(F0.34311884240885115
F0.006206802024109428
tp336
a(F0.32897192678597315
F0.0060775008508071526
tp337
a(F0.31504956537933132
F0.0059475082273712874
tp338
a(F0.32987014365091782
F0.0060857921245816918
tp339
a(F0.3235826255963053
F0.0060275137029465499
tp340
a(F0.31067075816272621
F0.0059060320269502566
tp341
a(F0.29809572205350127
F0.0057852679812207455
tp342
a(F0.28529613172804019
F0.005659701814380246
tp343
a(F0.28013138475460858
F0.0056082387407599306
tp344
a(F0.26901595105091863
F0.0054958468884815188
tp345
a(F0.25846190288781923
F0.005386961575409673
tp346
a(F0.26486169805054971
F0.0054532472443819856
tp347
a(F0.25958467396899998
F0.0053986495075170268
tp348
a(F0.24846924026531012
F0.0052817996699311975
tp349
a(F0.2391502402915095
F0.0051818044526665153
tp350
a(F0.26160566191512541
F0.005419624266233436
tp351
a(F0.25632863783357568
F0.0053646843508076449
tp352
a(F0.2456623125623581
F0.0052518809990422808
tp353
a(F0.2364555896966756
F0.0051525284870146924
tp354
a(F0.25509358964427681
F0.0053517446262615611
tp355
a(F0.24981656556272708
F0.0052961005977392112
tp356
a(F0.23948707161586372
F0.005185452326721034
tp357
a(F0.23061718007453547
F0.0050885194370381692
tp358
a(F0.24442726437305923
F0.0052386626527216266
tp359
a(F0.23937479450774568
F0.005184236653904723
tp360
a(F0.22949440899335469
F0.0050761174701775425
tp361
a(F0.22118590299261676
F0.0049833837444548754
tp362
a(F0.23230133669630668
F0.0051070659185314636
tp363
a(F0.22769797526346539
F0.0050562110504728643
tp364
a(F0.21849125239778286
F0.004952935086221146
tp365
a(F0.21108096326198961
F0.0048682194007495993
tp366
a(F0.20310928858560595
F0.0047754082081338661
tp367
a(F0.1995164211258274
F0.004732982863488608
tp368
a(F0.19154474644944375
F0.0046374659251097825
tp369
a(F0.18514495128671324
F0.0045593354464367802
tp370
asS'H_200_X_50'
p371
(lp372
(F0.0017809124380946735
F0.00044522810952366839
tp373
a(F0.0017809124380946735
F0.00044522810952366839
tp374
a(F0.0016696054107137562
F0.00043109026336214488
tp375
a(F0.0014469913559519224
F0.00040132319454137078
tp376
a(F0.0017809124380946735
F0.00044522810952366839
tp377
a(F0.0017809124380946735
F0.00044522810952366839
tp378
a(F0.0016696054107137562
F0.00043109026336214488
tp379
a(F0.0014469913559519224
F0.00040132319454137078
tp380
a(F0.0016696054107137562
F0.00043109026336214488
tp381
a(F0.0016696054107137562
F0.00043109026336214488
tp382
a(F0.0015582983833328395
F0.00041647276119965781
tp383
a(F0.0013356843285710052
F0.00038557885332641715
tp384
a(F0.0014469913559519224
F0.00040132319454137078
tp385
a(F0.0014469913559519224
F0.00040132319454137078
tp386
a(F0.0013356843285710052
F0.00038557885332641715
tp387
a(F0.0011130702738091712
F0.00035198372610642428
tp388
a(F0.0013356843285710052
F0.00038557885332641715
tp389
a(F0.0013356843285710052
F0.00038557885332641715
tp390
a(F0.0012243773011900881
F0.00036916364635231687
tp391
a(F0.0010017632464282538
F0.0003339210821427513
tp392
a(F0.00089045621904733677
F0.00031482381541905285
tp393
a(F0.00089045621904733677
F0.00031482381541905285
tp394
a(F0.00077914919166641975
F0.00029449071362376371
tp395
a(F0.00055653513690458558
F0.00024889007959716104
tp396
a(F0.0017809124380946735
F0.00044522810952366839
tp397
a(F0.0017809124380946735
F0.00044522810952366839
tp398
a(F0.0016696054107137562
F0.00043109026336214488
tp399
a(F0.0014469913559519224
F0.00040132319454137078
tp400
a(F0.0017809124380946735
F0.00044522810952366839
tp401
a(F0.0017809124380946735
F0.00044522810952366839
tp402
a(F0.0016696054107137562
F0.00043109026336214488
tp403
a(F0.0014469913559519224
F0.00040132319454137078
tp404
a(F0.0016696054107137562
F0.00043109026336214488
tp405
a(F0.0016696054107137562
F0.00043109026336214488
tp406
a(F0.0015582983833328395
F0.00041647276119965781
tp407
a(F0.0013356843285710052
F0.00038557885332641715
tp408
a(F0.0014469913559519224
F0.00040132319454137078
tp409
a(F0.0014469913559519224
F0.00040132319454137078
tp410
a(F0.0013356843285710052
F0.00038557885332641715
tp411
a(F0.0011130702738091712
F0.00035198372610642428
tp412
a(F0.0013356843285710052
F0.00038557885332641715
tp413
a(F0.0013356843285710052
F0.00038557885332641715
tp414
a(F0.0012243773011900881
F0.00036916364635231687
tp415
a(F0.0010017632464282538
F0.0003339210821427513
tp416
a(F0.00089045621904733677
F0.00031482381541905285
tp417
a(F0.00089045621904733677
F0.00031482381541905285
tp418
a(F0.00077914919166641975
F0.00029449071362376371
tp419
a(F0.00055653513690458558
F0.00024889007959716104
tp420
a(F0.0012243773011900881
F0.00036916364635231687
tp421
a(F0.0012243773011900881
F0.00036916364635231687
tp422
a(F0.0012243773011900881
F0.00036916364635231687
tp423
a(F0.0011130702738091712
F0.00035198372610642428
tp424
a(F0.0012243773011900881
F0.00036916364635231687
tp425
a(F0.0012243773011900881
F0.00036916364635231687
tp426
a(F0.0012243773011900881
F0.00036916364635231687
tp427
a(F0.0011130702738091712
F0.00035198372610642428
tp428
a(F0.0011130702738091712
F0.00035198372610642428
tp429
a(F0.0011130702738091712
F0.00035198372610642428
tp430
a(F0.0011130702738091712
F0.00035198372610642428
tp431
a(F0.0010017632464282538
F0.0003339210821427513
tp432
a(F0.0010017632464282538
F0.0003339210821427513
tp433
a(F0.0010017632464282538
F0.0003339210821427513
tp434
a(F0.0010017632464282538
F0.0003339210821427513
tp435
a(F0.00089045621904733677
F0.00031482381541905285
tp436
a(F0.00089045621904733677
F0.00031482381541905285
tp437
a(F0.00089045621904733677
F0.00031482381541905285
tp438
a(F0.00089045621904733677
F0.00031482381541905285
tp439
a(F0.00077914919166641975
F0.00029449071362376371
tp440
a(F0.00066784216428550261
F0.00027264542186924273
tp441
a(F0.00066784216428550261
F0.00027264542186924273
tp442
a(F0.00066784216428550261
F0.00027264542186924273
tp443
a(F0.00055653513690458558
F0.00024889007959716104
tp444
asS'obs'
p445
(lp446
(F8.0
F2.8284271247461903
tp447
a(F7.0
F2.6457513110645903
tp448
a(F5.0
F2.2360679774997898
tp449
a(F2.0
F1.4142135623730951
tp450
a(F5.0
F2.2360679774997898
tp451
a(F4.0
F2.0
tp452
a(F3.0
F1.7320508075688774
tp453
a(F1.0
F1.0
tp454
a(F5.0
F2.2360679774997898
tp455
a(F4.0
F2.0
tp456
a(F3.0
F1.7320508075688774
tp457
a(F1.0
F1.0
tp458
a(F2.0
F1.4142135623730951
tp459
a(F2.0
F1.4142135623730951
tp460
a(F1.0
F1.0
tp461
a(F0.0
F0.0
tp462
a(F1.0
F1.0
tp463
a(F1.0
F1.0
tp464
a(F1.0
F1.0
tp465
a(F0.0
F0.0
tp466
a(F1.0
F1.0
tp467
a(F1.0
F1.0
tp468
a(F1.0
F1.0
tp469
a(F0.0
F0.0
tp470
a(F3.0
F1.7320508075688774
tp471
a(F2.0
F1.4142135623730951
tp472
a(F2.0
F1.4142135623730951
tp473
a(F1.0
F1.0
tp474
a(F2.0
F1.4142135623730951
tp475
a(F1.0
F1.0
tp476
a(F1.0
F1.0
tp477
a(F0.0
F0.0
tp478
a(F2.0
F1.4142135623730951
tp479
a(F1.0
F1.0
tp480
a(F1.0
F1.0
tp481
a(F0.0
F0.0
tp482
a(F1.0
F1.0
tp483
a(F1.0
F1.0
tp484
a(F1.0
F1.0
tp485
a(F0.0
F0.0
tp486
a(F1.0
F1.0
tp487
a(F1.0
F1.0
tp488
a(F1.0
F1.0
tp489
a(F0.0
F0.0
tp490
a(F1.0
F1.0
tp491
a(F1.0
F1.0
tp492
a(F1.0
F1.0
tp493
a(F0.0
F0.0
tp494
a(F1.0
F1.0
tp495
a(F1.0
F1.0
tp496
a(F1.0
F1.0
tp497
a(F0.0
F0.0
tp498
a(F1.0
F1.0
tp499
a(F1.0
F1.0
tp500
a(F1.0
F1.0
tp501
a(F0.0
F0.0
tp502
a(F1.0
F1.0
tp503
a(F1.0
F1.0
tp504
a(F1.0
F1.0
tp505
a(F0.0
F0.0
tp506
a(F1.0
F1.0
tp507
a(F1.0
F1.0
tp508
a(F1.0
F1.0
tp509
a(F0.0
F0.0
tp510
a(F1.0
F1.0
tp511
a(F1.0
F1.0
tp512
a(F1.0
F1.0
tp513
a(F0.0
F0.0
tp514
a(F1.0
F1.0
tp515
a(F1.0
F1.0
tp516
a(F1.0
F1.0
tp517
a(F0.0
F0.0
tp518
as.