(dp0
S'H_200_X_50'
p1
(lp2
F8.3321189061636
aF7.104976230537751
aF4.506893934272638
aF3.2829710416110713
aF6.852704808887486
aF5.938073136740135
aF3.7848060073556953
aF2.6617760126456105
aF4.486970325364991
aF3.858719494294992
aF2.4011772041754806
aF1.6443766505849353
aF2.7971716970251275
aF2.340805769070386
aF1.5026035335086187
aF1.0143911466932025
aF1.4813363119982532
aF1.2287496116523715
aF0.780651333374139
aF0.5149612196096159
aF0.6122000225162729
aF0.511976778687572
aF0.3341798721150859
aF0.22067292849778708
aF2.9285218518848146
aF2.4815501730103806
aF1.5553302082093992
aF1.037313757517658
aF2.5732810218450464
aF2.2090694158851067
aF1.389006838144446
aF0.9043702968842509
aF1.889001223018054
aF1.6048938106305408
aF1.0186714205291798
aF0.6485451282684666
aF1.342913404454702
aF1.123739937365833
aF0.7198465584654151
aF0.4591865970305033
aF0.7992346288173555
aF0.6666056260182183
aF0.42183933041809646
aF0.266594854500668
aF0.42510794672081115
aF0.35552348181231874
aF0.22712080717925362
aF0.14520713741117008
aF0.427089986476815
aF0.3638808580890518
aF0.22057315941898237
aF0.1426425797760188
aF0.3684304966359841
aF0.3152587564420691
aF0.19427101332832555
aF0.12426483337557744
aF0.2833988963647578
aF0.23961516935408095
aF0.14784324107127
aF0.09463810677421197
aF0.22161762818268804
aF0.18597528668892438
aF0.11745756803573106
aF0.07520762532928472
aF0.15651113313794818
aF0.13143778312924373
aF0.08317252612929282
aF0.05329455008995388
aF0.10882010383029346
aF0.09143633852395985
aF0.05796929597066358
aF0.03716506630086877
asS'H_1000_X_150'
p3
(lp4
F8.3321189061636
aF7.104976230537751
aF4.506893934272638
aF3.2829710416110713
aF6.852704808887486
aF5.938073136740135
aF3.7848060073556953
aF2.6617760126456105
aF4.486970325364991
aF3.858719494294992
aF2.4011772041754806
aF1.6443766505849353
aF2.7971716970251275
aF2.340805769070386
aF1.5026035335086187
aF1.0143911466932025
aF1.4813363119982532
aF1.2287496116523715
aF0.780651333374139
aF0.5149612196096159
aF0.6122000225162729
aF0.511976778687572
aF0.3341798721150859
aF0.22067292849778708
aF2.9285218518848146
aF2.4815501730103806
aF1.5553302082093992
aF1.037313757517658
aF2.5732810218450464
aF2.2090694158851067
aF1.389006838144446
aF0.9043702968842509
aF1.889001223018054
aF1.6048938106305408
aF1.0186714205291798
aF0.6485451282684666
aF1.342913404454702
aF1.123739937365833
aF0.7198465584654151
aF0.4591865970305033
aF0.7992346288173555
aF0.6666056260182183
aF0.42183933041809646
aF0.266594854500668
aF0.42510794672081115
aF0.35552348181231874
aF0.22712080717925362
aF0.14520713741117008
aF0.427089986476815
aF0.3638808580890518
aF0.22057315941898237
aF0.1426425797760188
aF0.3684304966359841
aF0.3152587564420691
aF0.19427101332832555
aF0.12426483337557744
aF0.2833988963647578
aF0.23961516935408095
aF0.14784324107127
aF0.09463810677421197
aF0.22161762818268804
aF0.18597528668892438
aF0.11745756803573106
aF0.07520762532928472
aF0.15651113313794818
aF0.13143778312924373
aF0.08317252612929282
aF0.05329455008995388
aF0.10882010383029346
aF0.09143633852395985
aF0.05796929597066358
aF0.03716506630086877
asS'H_1000_X_350'
p5
(lp6
F8.3321189061636
aF7.104976230537751
aF4.506893934272638
aF3.2829710416110713
aF6.852704808887486
aF5.938073136740135
aF3.7848060073556953
aF2.6617760126456105
aF4.486970325364991
aF3.858719494294992
aF2.4011772041754806
aF1.6443766505849353
aF2.7971716970251275
aF2.340805769070386
aF1.5026035335086187
aF1.0143911466932025
aF1.4813363119982532
aF1.2287496116523715
aF0.780651333374139
aF0.5149612196096159
aF0.6122000225162729
aF0.511976778687572
aF0.3341798721150859
aF0.22067292849778708
aF2.9285218518848146
aF2.4815501730103806
aF1.5553302082093992
aF1.037313757517658
aF2.5732810218450464
aF2.2090694158851067
aF1.389006838144446
aF0.9043702968842509
aF1.889001223018054
aF1.6048938106305408
aF1.0186714205291798
aF0.6485451282684666
aF1.342913404454702
aF1.123739937365833
aF0.7198465584654151
aF0.4591865970305033
aF0.7992346288173555
aF0.6666056260182183
aF0.42183933041809646
aF0.266594854500668
aF0.42510794672081115
aF0.35552348181231874
aF0.22712080717925362
aF0.14520713741117008
aF0.427089986476815
aF0.3638808580890518
aF0.22057315941898237
aF0.1426425797760188
aF0.3684304966359841
aF0.3152587564420691
aF0.19427101332832555
aF0.12426483337557744
aF0.2833988963647578
aF0.23961516935408095
aF0.14784324107127
aF0.09463810677421197
aF0.22161762818268804
aF0.18597528668892438
aF0.11745756803573106
aF0.07520762532928472
aF0.15651113313794818
aF0.13143778312924373
aF0.08317252612929282
aF0.05329455008995388
aF0.10882010383029346
aF0.09143633852395985
aF0.05796929597066358
aF0.03716506630086877
asS'H_400_X_150'
p7
(lp8
F8.3321189061636
aF7.104976230537751
aF4.506893934272638
aF3.2829710416110713
aF6.852704808887486
aF5.938073136740135
aF3.7848060073556953
aF2.6617760126456105
aF4.486970325364991
aF3.858719494294992
aF2.4011772041754806
aF1.6443766505849353
aF2.7971716970251275
aF2.340805769070386
aF1.5026035335086187
aF1.0143911466932025
aF1.4813363119982532
aF1.2287496116523715
aF0.780651333374139
aF0.5149612196096159
aF0.6122000225162729
aF0.511976778687572
aF0.3341798721150859
aF0.22067292849778708
aF2.9285218518848146
aF2.4815501730103806
aF1.5553302082093992
aF1.037313757517658
aF2.5732810218450464
aF2.2090694158851067
aF1.389006838144446
aF0.9043702968842509
aF1.889001223018054
aF1.6048938106305408
aF1.0186714205291798
aF0.6485451282684666
aF1.342913404454702
aF1.123739937365833
aF0.7198465584654151
aF0.4591865970305033
aF0.7992346288173555
aF0.6666056260182183
aF0.42183933041809646
aF0.266594854500668
aF0.42510794672081115
aF0.35552348181231874
aF0.22712080717925362
aF0.14520713741117008
aF0.427089986476815
aF0.3638808580890518
aF0.22057315941898237
aF0.1426425797760188
aF0.3684304966359841
aF0.3152587564420691
aF0.19427101332832555
aF0.12426483337557744
aF0.2833988963647578
aF0.23961516935408095
aF0.14784324107127
aF0.09463810677421197
aF0.22161762818268804
aF0.18597528668892438
aF0.11745756803573106
aF0.07520762532928472
aF0.15651113313794818
aF0.13143778312924373
aF0.08317252612929282
aF0.05329455008995388
aF0.10882010383029346
aF0.09143633852395985
aF0.05796929597066358
aF0.03716506630086877
asS'H_400_X_50'
p9
(lp10
F8.3321189061636
aF7.104976230537751
aF4.506893934272638
aF3.2829710416110713
aF6.852704808887486
aF5.938073136740135
aF3.7848060073556953
aF2.6617760126456105
aF4.486970325364991
aF3.858719494294992
aF2.4011772041754806
aF1.6443766505849353
aF2.7971716970251275
aF2.340805769070386
aF1.5026035335086187
aF1.0143911466932025
aF1.4813363119982532
aF1.2287496116523715
aF0.780651333374139
aF0.5149612196096159
aF0.6122000225162729
aF0.511976778687572
aF0.3341798721150859
aF0.22067292849778708
aF2.9285218518848146
aF2.4815501730103806
aF1.5553302082093992
aF1.037313757517658
aF2.5732810218450464
aF2.2090694158851067
aF1.389006838144446
aF0.9043702968842509
aF1.889001223018054
aF1.6048938106305408
aF1.0186714205291798
aF0.6485451282684666
aF1.342913404454702
aF1.123739937365833
aF0.7198465584654151
aF0.4591865970305033
aF0.7992346288173555
aF0.6666056260182183
aF0.42183933041809646
aF0.266594854500668
aF0.42510794672081115
aF0.35552348181231874
aF0.22712080717925362
aF0.14520713741117008
aF0.427089986476815
aF0.3638808580890518
aF0.22057315941898237
aF0.1426425797760188
aF0.3684304966359841
aF0.3152587564420691
aF0.19427101332832555
aF0.12426483337557744
aF0.2833988963647578
aF0.23961516935408095
aF0.14784324107127
aF0.09463810677421197
aF0.22161762818268804
aF0.18597528668892438
aF0.11745756803573106
aF0.07520762532928472
aF0.15651113313794818
aF0.13143778312924373
aF0.08317252612929282
aF0.05329455008995388
aF0.10882010383029346
aF0.09143633852395985
aF0.05796929597066358
aF0.03716506630086877
as.