(dp0
S'H_200_X_50'
p1
(lp2
F0.25453919278388903
aF0.22837782408460056
aF0.1765160609477703
aF0.2031130693063054
aF0.19748263663447485
aF0.22547864698538697
aF0.161260318789536
aF0.19552755754068085
aF0.19612933060376644
aF0.1703411733764946
aF0.17152158556896663
aF0.19540158414664952
aF0.1841828262615802
aF0.1957727132769781
aF0.1910527487464011
aF0.4894474693986132
aF0.3824040858177743
aF0.17414026761604603
aF0.3914850537581208
aF0.15635147695862106
aF0.1815015134251605
aF0.1788448906246739
aF0.20887283539622487
aF0.4923945606945736
aF0.16205882644312733
aF0.3285368700415133
aF0.34836141372226936
aF0.1574394810359016
aF0.1554129080476215
aF0.178566173030074
aF0.14255962186720725
aF0.0979359600430063
aF0.13931807156035475
aF0.17320433709495717
aF0.1557510040866465
aF0.12497372275242682
aF0.17685032663720618
aF0.17628366405731308
aF0.1130653813852365
aF0.2680031122556934
aF0.12616687094359
aF0.12100204382953836
aF0.12768292027817507
aF0.24639219443833027
aF0.1804855529825872
aF0.19635083458428618
aF0.17688620797272353
aF0.24890197346533618
aF0.1248809127087629
aF0.13880854397294753
aF0.12665134516687204
aF0.14467520856082633
aF0.13743791150027163
aF0.13102983156712833
aF0.13779363401711117
aF0.1472024232705552
aF0.1424776897986932
aF0.3580684935198889
aF0.13503705218110754
aF0.15948028726492816
aF0.1558293431509597
aF0.15357411807202656
aF0.22506625921128964
aF0.1804749568342876
aF0.1948259458116165
aF0.17387311642741707
aF0.1771662824570728
aF0.2188995531915264
aF0.22419316532118888
aF0.23518746652527003
aF0.25073237550352784
aF0.27990045249408635
asS'H_1000_X_150'
p3
(lp4
F0.0010421052631578948
aF0.0009920856177376817
aF0.0009314050599252462
aF0.000825640659970638
aF0.0009377384898987143
aF0.0009283047502891439
aF0.0009210493279916547
aF0.0008676406319884453
aF0.0009353475398771229
aF0.0008924326810471264
aF0.0007586297036862776
aF0.0008347522124475095
aF0.0007390613650953905
aF0.0008877241629420518
aF0.0007226785619997525
aF0.0007139155906454209
aF0.0007420139032982996
aF0.0007428388292108046
aF0.0006158066739120989
aF0.0005376639971560841
aF0.0006964554460277983
aF0.0005933891902663295
aF0.0006400666058287351
aF0.000642877413882662
aF0.0008703395712234152
aF0.0008025499197075887
aF0.0007582795376951119
aF0.0006772811019959819
aF0.0009198581610120516
aF0.0007622380032325765
aF0.0008327796191841652
aF0.0008683447296046592
aF0.0007158134565158631
aF0.000644197570881773
aF0.0007379239023146024
aF0.00046938156954155053
aF0.0008177947325651366
aF0.000732844128759872
aF0.0005659257485286852
aF0.0005269027000246134
aF0.00046780014650070234
aF0.0005494540920318984
aF0.0008509526108975231
aF0.0011174760568841444
aF0.0007364795594342249
aF0.000555225245917355
aF0.0007018656636592282
aF0.0007368421052631579
aF0.0007224076038832124
aF0.001140517198768886
aF0.0006475709908222157
aF0.0006752387949707205
aF0.0006936981239573931
aF0.0006148496530023643
aF0.0012348279283702838
aF0.0006890341402332016
aF0.0006263168439492651
aF0.0006886012249552168
aF0.0006551546054498234
aF0.0006540044381743065
aF0.0006383280537468934
aF0.0008024382747305681
aF0.0007754530193430089
aF0.0007174323455794661
aF0.0006446848982742619
aF0.0007522027201212677
aF0.0006602447328402063
aF0.0014741803123145877
aF0.0009179904059825416
aF0.0009720898696485767
aF0.0008463512283320552
aF0.0008865226890053229
asS'H_1000_X_350'
p5
(lp6
F0.003
aF0.0009932867979119422
aF0.0008950694474711723
aF0.0008500609984816864
aF0.0007971538939787558
aF0.002067090080404867
aF0.0007261280894671968
aF0.0006986556397442708
aF0.0008639704250358567
aF0.0008412572941225196
aF0.000715062851123868
aF0.0007517771990317157
aF0.0007107128723142763
aF0.0006869630901727778
aF0.0006995106635080317
aF0.0010565651305420802
aF0.0006903369351048165
aF0.0008141568051742591
aF0.0011991302547190773
aF0.0004660789285432025
aF0.0005750520096395004
aF0.0006098767281152276
aF0.0005373335639015895
aF0.0005833306091052499
aF0.0005814335325921933
aF0.0008034697122727831
aF0.0006755084727968975
aF0.0006506998631116813
aF0.0026000000000000003
aF0.0007215466677109735
aF0.0007667400105497624
aF0.0004921364432375415
aF0.0017201727143684076
aF0.0006616979306544043
aF0.0006989511231378164
aF0.0009609311242396208
aF0.0006728283441551239
aF0.0007281941038359538
aF0.0005174791624230523
aF0.0005862882569868155
aF0.00055971850286993
aF0.0012688299480881308
aF0.0005042662449822701
aF0.0005582286244665876
aF0.0006078733618001679
aF0.001737167598536485
aF0.0005818163709945228
aF0.0006027826967639538
aF0.0008996793052072144
aF0.0006768716926887398
aF0.0006749907125353512
aF0.0006754767356843965
aF0.0005830971253631624
aF0.0011373411803672477
aF0.0006656282053929788
aF0.0007402198200969124
aF0.0012811530004466017
aF0.0005739598947277242
aF0.0007139668847174212
aF0.0006834437951182032
aF0.0006283665783607555
aF0.0006682507918179884
aF0.0007177468599409235
aF0.0023251347515247946
aF0.001034266410349123
aF0.0006878458708214011
aF0.0007046354083525545
aF0.0008068937961253006
aF0.0007637356782174926
aF0.0007701476654364882
aF0.0008500171539206626
aF0.0008055215930609195
asS'H_400_X_150'
p7
(lp8
F0.0038536976660777144
aF0.003705560356057506
aF0.003516855835502222
aF0.003393818148300708
aF0.0034694830343820577
aF0.00313888119504342
aF0.0033989947706207736
aF0.011000000000000001
aF0.0035624783173676556
aF0.0034765754914292198
aF0.0035190088495331857
aF0.0029340389955865476
aF0.00624426417647374
aF0.00296903783466295
aF0.002758731365130167
aF0.0033414695864200862
aF0.0028776034968622083
aF0.003283619047781448
aF0.0023974109372183897
aF0.002657396834642587
aF0.002887219878321098
aF0.0031642618233305914
aF0.002946179271429552
aF0.0032605595261915323
aF0.00276759502534951
aF0.0032413823352936606
aF0.0028629674338770126
aF0.0027262342130587053
aF0.0027272642705355237
aF0.002899068482124826
aF0.002796186270535029
aF0.001988881587835945
aF0.0031696086114475623
aF0.0030124460577137875
aF0.0028496845596809504
aF0.0022306945151973315
aF0.002868544709696048
aF0.002840932408713591
aF0.002383310173151603
aF0.0032326776021116563
aF0.0022018936819500397
aF0.0037424246856742854
aF0.002190127990625845
aF0.0023742157646041368
aF0.0034275502951701406
aF0.0029247623072242027
aF0.0033989478741206377
aF0.003605692481503878
aF0.0023473045497569424
aF0.0020499100515629517
aF0.0035011270386157956
aF0.0030804106132003625
aF0.002517877744017623
aF0.002721198189729617
aF0.002764742795657109
aF0.0030773325217627974
aF0.0022138759568032704
aF0.0025628440895743574
aF0.004964063883911907
aF0.0031734136763666215
aF0.002877290110738706
aF0.002683439705468787
aF0.005053623465250622
aF0.0031043326798286296
aF0.0029745476393972918
aF0.003430623988617991
aF0.0035656135146047603
aF0.004048429551654594
aF0.003638058549023597
aF0.004500198081301836
aF0.004482766358948978
aF0.008971746737220366
asS'H_400_X_50'
p9
(lp10
F0.009221585204057756
aF0.010037945105325198
aF0.00924689503629648
aF0.008745952640944998
aF0.009224490341272264
aF0.017345106936237822
aF0.0077021694813958355
aF0.007469790884152623
aF0.009079674879592072
aF0.008050515576775061
aF0.007970823013542875
aF0.007363248013985984
aF0.008739957307094851
aF0.007976191498034683
aF0.012285037298529988
aF0.008824655464623419
aF0.007669398301593751
aF0.0126421331737961
aF0.006616934978447799
aF0.007576923079181359
aF0.0077359965178325305
aF0.007590302619663616
aF0.008329500996311114
aF0.012914271079293261
aF0.006766239629271314
aF0.007390631876498692
aF0.005818232935382963
aF0.0064691878415533985
aF0.01385106477511215
aF0.00876590451959383
aF0.008317560668115754
aF0.004558788343856811
aF0.008231596680094733
aF0.007600648591270123
aF0.006972133288853392
aF0.004955301873567692
aF0.009185235741753164
aF0.007868080929436227
aF0.005507098002603597
aF0.006033141107062768
aF0.005345002104536387
aF0.005427300757504157
aF0.006789689872909247
aF0.007127956914989393
aF0.007662371105934376
aF0.00786969401689844
aF0.014167982066188268
aF0.008657549888712349
aF0.005784461228934197
aF0.007215763698328395
aF0.007035664110530699
aF0.0069788589995094606
aF0.006595125227158839
aF0.00678444260117727
aF0.023198969661096504
aF0.018008424419615098
aF0.00936123267144384
aF0.0074682199287746534
aF0.006773182582040531
aF0.013743404316910355
aF0.006791747692559332
aF0.007714507152585883
aF0.009322909649594736
aF0.034
aF0.0099225633681863
aF0.008303680745041064
aF0.009740221719520072
aF0.009543589560569677
aF0.010406833464755228
aF0.010988601431875272
aF0.011586550683220698
aF0.011193844797187253
as.