(dp0
S'H_200_X_50'
p1
(lp2
F0.10827073515486801
aF0.11427399323460247
aF0.0993126909167285
aF0.09748902844039176
aF0.11074723640396754
aF0.11054232600336555
aF0.10041021578094568
aF0.09008091760411915
aF0.10180916511201372
aF0.0931243814950176
aF0.08932436033103851
aF0.08080454041709255
aF0.10563188805898172
aF0.10489629476967176
aF0.09356691362702499
aF0.09859681360595354
aF0.11148751660887224
aF0.10578604921879568
aF0.07837499739278835
aF0.07563113252758359
aF0.10303985257562065
aF0.10146421001922691
aF0.1135881162921295
aF0.11205080015141916
aF0.07829438144635836
aF0.08393425319749553
aF0.15596718201843246
aF0.08581057559735622
aF0.0858006646111564
aF0.09740314753139019
aF0.08793285092211421
aF0.056565750879807024
aF0.08729942081996335
aF0.08399886338432906
aF0.09134376067883013
aF0.058085423409539955
aF0.10200371850176901
aF0.09578888381421287
aF0.0682614041101283
aF0.07387257244123557
aF0.0800337297705164
aF0.071479474165445
aF0.07470776916036369
aF0.07367469001149675
aF0.10278095741872277
aF0.10581946847121006
aF0.12545079523228095
aF0.11933647183935425
aF0.05902450997473653
aF0.061354005755526596
aF0.06930074772951537
aF0.07229384657540608
aF0.0636482630167086
aF0.06436304847862134
aF0.07266943130541169
aF0.07073914264964466
aF0.07315329693767239
aF0.07112103079401205
aF0.08203388977201834
aF0.08333949455606118
aF0.08893123873274
aF0.08826273111663684
aF0.09214711078074242
aF0.10019880773691267
aF0.09448671107637226
aF0.09914614870579178
aF0.10976105694556605
aF0.10559996610456865
aF0.12351883773776463
aF0.12009566604470819
aF0.13330678739188095
aF0.13315498633460943
asS'H_1000_X_150'
p3
(lp4
F0.0009305715315602958
aF0.0008374275779903854
aF0.0007067621447159936
aF0.0006673084512973094
aF0.0008237293979876534
aF0.0007851696843085565
aF0.0006360067596779963
aF0.0005894736842105263
aF0.0007487321926318314
aF0.0006727487363854938
aF0.0006127426726205351
aF0.0005558581246057282
aF0.0006686553327866786
aF0.0006474015472400992
aF0.0005580246080340306
aF0.0005620645869033841
aF0.000632863060159458
aF0.0006333033263847953
aF0.0004155940582636162
aF0.0004243826329854536
aF0.0005204353272937664
aF0.0005226271966628298
aF0.0004953768742367177
aF0.0005191678896876089
aF0.0006111726984346346
aF0.000633801657684306
aF0.0005778609794626644
aF0.00050458916044155
aF0.0006086610772331546
aF0.0006428271591699192
aF0.0005433561342982002
aF0.00036792377829917406
aF0.0005784009266753408
aF0.0005792963544311509
aF0.0005382107846979585
aF0.00039771192776024897
aF0.0006109572650505981
aF0.0005869938762431313
aF0.0004010004
aF0.00041513362211843103
aF0.0004373518654049348
aF0.00044422331126987223
aF0.00044735221374952723
aF0.0004531318599429594
aF0.0005275949458800617
aF0.0005292930915436651
aF0.0005352985188829225
aF0.0005661750670297972
aF0.0004886997891888306
aF0.0004787144199937001
aF0.00048421052631578945
aF0.0005083860455302872
aF0.0004896414454354532
aF0.0004924704219908407
aF0.0005013853260172861
aF0.0005177427158545654
aF0.0005163601902998369
aF0.0005282903847913538
aF0.0005044570959984645
aF0.0005151435975226931
aF0.0005535114961579081
aF0.0005391284600092742
aF0.0005299405333991388
aF0.0005622176016953944
aF0.0005999317826363164
aF0.0006546508571248975
aF0.000608861135709505
aF0.0006316513689315064
aF0.0007095091084780262
aF0.0007088539954335379
aF0.0007414322999262939
aF0.0007251464568487859
asS'H_1000_X_350'
p5
(lp6
F0.0007299350005678144
aF0.0006552462789964708
aF0.0005442644925444049
aF0.0005444724781961551
aF0.0006630628375526786
aF0.0006099057457975365
aF0.0005206438661121372
aF0.0004934445963349855
aF0.0005751300669817149
aF0.0005241436820176402
aF0.00047674464427580987
aF0.0004229765254583947
aF0.00048332207481561047
aF0.00047984305226203355
aF0.00043071355692238684
aF0.00042572231097462915
aF0.0018738579402528181
aF0.0004532490890311151
aF0.00029909350905940054
aF0.00031929073113427033
aF0.00036453241975748006
aF0.00035589402205298947
aF0.00036268041683796984
aF0.00037654751844490037
aF0.00046812616199421554
aF0.0005185658922487052
aF0.00043587250753066817
aF0.00043521055865541853
aF0.0004906343084936929
aF0.0005123916208096067
aF0.001334911327404482
aF0.00031921529341039166
aF0.00045690479545371153
aF0.00044923580891105346
aF0.00043276740067707054
aF0.00030284369824237946
aF0.0004739653262692218
aF0.00047491955656402737
aF0.0002713969027303379
aF0.00031199630496816366
aF0.00033473361065081234
aF0.0003326822852577994
aF0.0003469450310433776
aF0.0003331052242022097
aF0.00039892990151281586
aF0.0004558920300198826
aF0.00039748375770566456
aF0.000396350979344786
aF0.0004045065861602814
aF0.00040064588400435104
aF0.00041102640325169743
aF0.0004079081161554839
aF0.00042550491977091996
aF0.00041339900442806057
aF0.00042330282217690156
aF0.00041722856894895925
aF0.00042685887619483496
aF0.0004168947433728703
aF0.0004124180584942805
aF0.00046433546177749734
aF0.0004232883081769539
aF0.0004371961629284094
aF0.0004371961629284094
aF0.00044204365770852245
aF0.0004520059885631117
aF0.0004751742571076086
aF0.0004590980582371197
aF0.0004725068463388809
aF0.001646794814658658
aF0.0005600257260843649
aF0.000545872528411932
aF0.0005685250532183805
asS'H_400_X_150'
p7
(lp8
F0.0021065391025316335
aF0.002050461128585364
aF0.001758531230223798
aF0.00168784626117993
aF0.002011793037434794
aF0.0019317597807304724
aF0.0016891469319988731
aF0.0015854175224633447
aF0.0018710419876951949
aF0.0017627407281995862
aF0.001650228716661579
aF0.0013640191700472653
aF0.0018491245643144727
aF0.0018116318072805204
aF0.0015352906111807847
aF0.0015208858801675916
aF0.0017718897770695873
aF0.0017689663453209874
aF0.001169917720708499
aF0.0012488008607754461
aF0.001646567319114516
aF0.0016234754603414888
aF0.0016045459052115073
aF0.0017392229053148109
aF0.0016187593661497674
aF0.0015673004720002752
aF0.0013842473395085143
aF0.0013152900597999736
aF0.0016383150281476123
aF0.0016185953389481601
aF0.0014224443992272803
aF0.0009145099966163038
aF0.001452575607725087
aF0.001343709858497401
aF0.00142748743127196
aF0.0010640310610817996
aF0.001609674786888032
aF0.0016053029680092013
aF0.0011264088225090491
aF0.001148076057140104
aF0.0012515069212484552
aF0.001234425889781712
aF0.0013523948483499574
aF0.0013211056267728376
aF0.0016527410498898712
aF0.0017254261859103888
aF0.0017020603230074069
aF0.004302549610713308
aF0.0012363999731154667
aF0.0012196544160217012
aF0.0012634266405053966
aF0.0013438318430074763
aF0.0012834639551502283
aF0.0012792741635310105
aF0.0013366514447288287
aF0.0013337779896088302
aF0.001393789447270587
aF0.0013479781937849173
aF0.0013751662563378322
aF0.0014224221859372684
aF0.0015614520491086512
aF0.0014530488633774784
aF0.0015035301239038664
aF0.0015554582475002547
aF0.0016752186704187828
aF0.0016696974529804651
aF0.0016711403503959885
aF0.0017470800062969083
aF0.002233001178237389
aF0.002171401145941196
aF0.0021772022846823715
aF0.002338510865528846
asS'H_400_X_50'
p9
(lp10
F0.006057197751977271
aF0.006044956034238706
aF0.00506365244318585
aF0.004858472352928409
aF0.006105948528525964
aF0.005562106596600377
aF0.0049973558729058225
aF0.004610229062991723
aF0.0060526315789473685
aF0.005280996765010032
aF0.005007497210738931
aF0.004623963511741657
aF0.0059839009687128065
aF0.00555420775226782
aF0.0051939464941323935
aF0.00482704559041303
aF0.006377377533243169
aF0.006479611936953486
aF0.004075983353908966
aF0.004119347696518731
aF0.006295732984308298
aF0.006162426332631046
aF0.006085542568082536
aF0.0066940493227832555
aF0.004459688861645834
aF0.004244516293872683
aF0.0038040100989057044
aF0.003803838697652523
aF0.004908882960675941
aF0.004961576642883854
aF0.004093137166615496
aF0.002484897955587771
aF0.0046630787929443
aF0.0045003445366915825
aF0.004484526036865609
aF0.003158897894736842
aF0.0049752204645770745
aF0.005084170590013838
aF0.003406280365829307
aF0.0035768421134571627
aF0.0042672447206148
aF0.004254404609569482
aF0.004499661319102357
aF0.004584814572700835
aF0.006401551019274618
aF0.0063112578677341
aF0.0063303820214693045
aF0.0067722710313483534
aF0.0034855380188025557
aF0.003466815336148143
aF0.0035138298288982296
aF0.0036644595852725753
aF0.004036683732028666
aF0.004094426182921245
aF0.004017982298421608
aF0.012002819265680762
aF0.004107774661461796
aF0.004141429226407851
aF0.004185754205573603
aF0.004592550820078543
aF0.004865133466752778
aF0.004804205451194184
aF0.004831549297091552
aF0.004832883590768218
aF0.0059890478492307915
aF0.00590958109313108
aF0.006035109511809839
aF0.006454421052524386
aF0.008808402501820469
aF0.008952512056476966
aF0.008859411245196604
aF0.009330905268566411
as.