(dp0
S'H_200_X_50'
p1
(lp2
F0.09392944275562766
aF0.0937807300071626
aF0.08678176319226683
aF0.08777983947527844
aF0.10995068394012443
aF0.10527751416760038
aF0.09632962741924862
aF0.2076557572951124
aF0.28979819882560653
aF0.09428023203453977
aF0.09369866591206054
aF0.08246578075632519
aF0.36000000000000004
aF0.09820057004037888
aF0.1590715265457415
aF0.10155558516727571
aF0.10477664954347175
aF0.1135539317960733
aF0.08053760521928367
aF0.08242022123793198
aF0.18554526207569888
aF0.10963638573455854
aF0.1264696821116074
aF0.11732357852084947
aF0.08707591319220519
aF0.08253432966601923
aF0.08720586422687118
aF0.08116074643421958
aF0.06996066119804045
aF0.10389079202125019
aF0.08259007991736682
aF0.05804014319763047
aF0.09836815658138842
aF0.09976320453916594
aF0.09381801954068131
aF0.161001062355305
aF0.1004890768096401
aF0.09265631106081482
aF0.07403703209208289
aF0.07250844630337126
aF0.08719862733577545
aF0.07754123706221024
aF0.08602781852005574
aF0.08309055059524183
aF0.19168455039778248
aF0.12059299296635569
aF0.1281686053049189
aF0.11216784066249906
aF0.05381595221373307
aF0.13426662288544078
aF0.0614789651266621
aF0.07897086157843305
aF0.06914369914828113
aF0.05916814236575837
aF0.07896490002969173
aF0.07709373635496036
aF0.07260479584020756
aF0.13112725483663426
aF0.09744978474751069
aF0.08353569382725981
aF0.1384869393886572
aF0.09398381136432693
aF0.09826939586155509
aF0.09616697551241982
aF0.11318659532254852
aF0.10190380239253656
aF0.11933863511085181
aF0.10444110143517019
aF0.11790493724358547
aF0.1292661882970861
aF0.1396471288380737
aF0.14337644040268552
asS'H_1000_X_150'
p3
(lp4
F0.0007853950149367498
aF0.0008397323699013296
aF0.0007389644855131701
aF0.0006553372657780737
aF0.0008488689209987821
aF0.0007487519463995671
aF0.0006343026544076319
aF0.0011858359553098639
aF0.0007036869083362002
aF0.001293595916331478
aF0.0005619025847987705
aF0.0005345639990944284
aF0.0006219238758979078
aF0.0008526735873279569
aF0.0006603928452748999
aF0.0005556442405293084
aF0.0007411615434105856
aF0.0006279018821548982
aF0.0009819063972309522
aF0.00040935405081532196
aF0.000523434155933457
aF0.0005209886544948775
aF0.0005192904702750059
aF0.000495086181704079
aF0.000635683225535644
aF0.0006277370934341655
aF0.0006364476349382231
aF0.0005385676954268832
aF0.0006423008815389301
aF0.0007325117593025463
aF0.0006391887347138066
aF0.00039473684210526315
aF0.0006304251694778078
aF0.0006969115996054533
aF0.0004985962411576907
aF0.000324555955052605
aF0.0005964618516875073
aF0.0006535864184568638
aF0.0005742475394656213
aF0.0014705681725802955
aF0.0004313332526930005
aF0.00044110573335035983
aF0.0005201626123751157
aF0.0007081181935114618
aF0.000522899978143828
aF0.00047446306497626753
aF0.0005433150937659306
aF0.0006428291783988983
aF0.00047931932223874846
aF0.0014716812641593685
aF0.0005018507544792146
aF0.000473035385495628
aF0.0004961866710990471
aF0.001388210937922397
aF0.0004754254735361718
aF0.0005012614634190403
aF0.0005021108643669746
aF0.0005831598786132719
aF0.0005413341347095432
aF0.00048817705854534117
aF0.0005759492940974646
aF0.000564758338096044
aF0.0005314490475998456
aF0.000568347953921409
aF0.0005563697396647212
aF0.0005406954818522329
aF0.0006113813506047185
aF0.0006554460205733247
aF0.0007387830058377566
aF0.0007196519088616891
aF0.0007478189354374939
aF0.0007103598101610729
asS'H_1000_X_350'
p5
(lp6
F0.0006326153155767401
aF0.0006523016130873882
aF0.0005619980128984792
aF0.0005112086510129048
aF0.0006000000000000001
aF0.0005628039606783884
aF0.000922464295540873
aF0.0004751760628140374
aF0.0005732337938363665
aF0.000603606701721651
aF0.0006213269484175547
aF0.00048068048243144466
aF0.0004897499944386868
aF0.0005188925278040247
aF0.0007257291779999912
aF0.0004234651136850006
aF0.00044528768948684684
aF0.000765839703423407
aF0.00031080153393283196
aF0.00042843442771129314
aF0.00042002176694202266
aF0.00038968545819753706
aF0.00034776092864658434
aF0.00036392351467764544
aF0.0004655502393850641
aF0.0005141534585514187
aF0.0005438613948291645
aF0.00042966995808251467
aF0.0005523110106822124
aF0.0005177325285516178
aF0.00045791261997572835
aF0.00028961708644586836
aF0.00047309759905262273
aF0.0004703948507041261
aF0.0004616623231252309
aF0.0002980928126119039
aF0.0004051246777105639
aF0.00040682303118927344
aF0.00026987123594731093
aF0.00027368421052631584
aF0.00036576127412591076
aF0.0003140377989659086
aF0.0003488433017827542
aF0.00036424624721489063
aF0.000324555955052605
aF0.0003826820520425556
aF0.00039107025104120836
aF0.00041764351663057766
aF0.0006985545103205681
aF0.000571018011532904
aF0.0004399073421321651
aF0.0004341918682923617
aF0.0007185468331502411
aF0.0008416264425898094
aF0.00041825531000200613
aF0.0003714211710787155
aF0.0007331203191512405
aF0.00042995597006084414
aF0.0007539920302855531
aF0.00043548165799882696
aF0.00043305973669681045
aF0.0005085929420490964
aF0.00044151854491407356
aF0.00044172266907415765
aF0.0005172334332669857
aF0.0011492022680737925
aF0.0004941166101487908
aF0.00045288836703410247
aF0.0005634744827052728
aF0.0005497023801969865
aF0.0006042625526315789
aF0.0005360462247192754
asS'H_400_X_150'
p7
(lp8
F0.002064478922251821
aF0.0020596666527802456
aF0.0049664103606811396
aF0.0018036857449656271
aF0.0017561638841115995
aF0.005787443769979269
aF0.0017247845623128081
aF0.0016079691447588858
aF0.0016193093766722923
aF0.0016301777477690362
aF0.0017295314118367065
aF0.001682832090296898
aF0.0016105997937449212
aF0.0020048943147723485
aF0.0018572206163639585
aF0.0015253717245015664
aF0.0021689265787214894
aF0.001582282471546973
aF0.001321111718698406
aF0.0012495457714949375
aF0.0016211467916772586
aF0.0015623537967661557
aF0.0016106376306020246
aF0.0019120886228674425
aF0.0015963072905866421
aF0.0016285880546866194
aF0.0013240769603972196
aF0.0013470072580396245
aF0.0016385232868672572
aF0.0015483990411107866
aF0.002156061837518538
aF0.0012708920485626717
aF0.001446806083426142
aF0.0014757586711975639
aF0.0014343260437756605
aF0.0011726735303677703
aF0.0015622162229060653
aF0.0015260692680680707
aF0.0012457797975180792
aF0.0011095209952800458
aF0.0011796675198204767
aF0.0012479995769484997
aF0.0012233391096866009
aF0.0011479994758745668
aF0.001607438406082154
aF0.0017204914746176436
aF0.001684711048158947
aF0.004001331245542689
aF0.0017442535697985628
aF0.001351682921296138
aF0.0012863034499006882
aF0.0013778134681898305
aF0.0012529567319246322
aF0.0013671985818644744
aF0.001406647457818765
aF0.0014291991878308272
aF0.0012498622865001903
aF0.0013777420075123748
aF0.0012170367062379335
aF0.001586560578265509
aF0.0017174229573324764
aF0.001485753924224724
aF0.0015130526888074427
aF0.0017262974178743381
aF0.0016981184311795291
aF0.002446756929504513
aF0.0017499918273157498
aF0.001770064059863893
aF0.0022512562316044367
aF0.0021642110488775527
aF0.002259269583444752
aF0.00225276032235987
asS'H_400_X_50'
p9
(lp10
F0.005828761578295127
aF0.005410754968900542
aF0.005044080829514976
aF0.004773005662644917
aF0.005737147785758712
aF0.018000000000000002
aF0.005099822265877049
aF0.004304262095203225
aF0.005325670954687908
aF0.0051336912506969815
aF0.004940549746446897
aF0.0042049856077551
aF0.005828866394950872
aF0.00512981546524909
aF0.005518891059318634
aF0.009177502245522747
aF0.0063245611360663095
aF0.006450900189521763
aF0.004810234492976115
aF0.004692551199800683
aF0.0060547882838983165
aF0.005971449351560829
aF0.006243276394367983
aF0.013258104208824981
aF0.013838788777700959
aF0.00434378448094916
aF0.003334776706546332
aF0.0039342082130066685
aF0.005091541055098248
aF0.005109969439318379
aF0.004583667334584808
aF0.0029729107077529964
aF0.0041656900204502505
aF0.005143594403932754
aF0.004505390937751956
aF0.0031652705209249377
aF0.005941734577190353
aF0.004916123322236407
aF0.005020891891065086
aF0.003516911700916232
aF0.004183528761073682
aF0.004163810639679388
aF0.007828988128568398
aF0.0047905407089817685
aF0.006589366036567723
aF0.005790154155081755
aF0.006897745564543628
aF0.0067768927613733486
aF0.003652215934786308
aF0.003661016664337645
aF0.003628420739389423
aF0.0032159585958800685
aF0.004121558945373831
aF0.0036773488396744606
aF0.004027000168856629
aF0.007036173960607659
aF0.012800883872356646
aF0.009359704149171665
aF0.004050718051042568
aF0.004476790573218805
aF0.005072795420245704
aF0.004314576451817559
aF0.004359458426841176
aF0.005435154351673019
aF0.006280027700041479
aF0.006184220333722841
aF0.006412259245834916
aF0.006167762881945415
aF0.0096460991091045
aF0.009666765631277453
aF0.009231932791944862
aF0.009610874873144635
as.